---
triple:          'arm64-apple-darwin'
binary-path:     'build/debug/output'
relocations:
  - { offsetInCU: 0x5BE6, offset: 0x5BE6, size: 0x8, addend: 0x0, symName: __ZNSt3__112__to_addressB8ue170006I5ModelEEPT_S3_, symObjAddr: 0x1E70, symBinAddr: 0x100004F00, symSize: 0x14 }
  - { offsetInCU: 0x5C1B, offset: 0x5C1B, size: 0x8, addend: 0x0, symName: __ZNSt3__119__libcpp_deallocateB8ue170006EPvmm, symObjAddr: 0x1FB8, symBinAddr: 0x100005048, symSize: 0x30 }
  - { offsetInCU: 0x5C63, offset: 0x5C63, size: 0x8, addend: 0x0, symName: __ZNSt3__127__do_deallocate_handle_sizeB8ue170006IJEEEvPvmDpT_, symObjAddr: 0x1FE8, symBinAddr: 0x100005078, symSize: 0x28 }
  - { offsetInCU: 0x5CA1, offset: 0x5CA1, size: 0x8, addend: 0x0, symName: __ZNSt3__124__libcpp_operator_deleteB8ue170006IJPvEEEvDpT_, symObjAddr: 0x2010, symBinAddr: 0x1000050A0, symSize: 0x24 }
  - { offsetInCU: 0x5D09, offset: 0x5D09, size: 0x8, addend: 0x0, symName: __ZNSt3__118__constexpr_strlenB8ue170006EPKc, symObjAddr: 0x29B8, symBinAddr: 0x100005A48, symSize: 0x24 }
  - { offsetInCU: 0x5D35, offset: 0x5D35, size: 0x8, addend: 0x0, symName: __ZNSt3__112__to_addressB8ue170006I8ObstacleEEPT_S3_, symObjAddr: 0x2EA4, symBinAddr: 0x100005F34, symSize: 0x14 }
  - { offsetInCU: 0x5D6A, offset: 0x5D6A, size: 0x8, addend: 0x0, symName: __ZNSt3__13maxB8ue170006ImEERKT_S3_S3_, symObjAddr: 0x35A4, symBinAddr: 0x100006634, symSize: 0x2C }
  - { offsetInCU: 0x5DAD, offset: 0x5DAD, size: 0x8, addend: 0x0, symName: __ZNSt3__13minB8ue170006ImEERKT_S3_S3_, symObjAddr: 0x35D0, symBinAddr: 0x100006660, symSize: 0x2C }
  - { offsetInCU: 0x5FF1, offset: 0x5FF1, size: 0x8, addend: 0x0, symName: __ZNSt3__13minB8ue170006ImNS_6__lessIvvEEEERKT_S5_S5_T0_, symObjAddr: 0x365C, symBinAddr: 0x1000066EC, symSize: 0x54 }
  - { offsetInCU: 0x6090, offset: 0x6090, size: 0x8, addend: 0x0, symName: __ZNSt3__120__throw_length_errorB8ue170006EPKc, symObjAddr: 0x373C, symBinAddr: 0x1000067CC, symSize: 0x64 }
  - { offsetInCU: 0x60BA, offset: 0x60BA, size: 0x8, addend: 0x0, symName: __ZNSt3__13maxB8ue170006ImNS_6__lessIvvEEEERKT_S5_S5_T0_, symObjAddr: 0x3820, symBinAddr: 0x1000068B0, symSize: 0x54 }
  - { offsetInCU: 0x6114, offset: 0x6114, size: 0x8, addend: 0x0, symName: __ZNSt3__119__allocate_at_leastB8ue170006INS_9allocatorI8ObstacleEEEENS_19__allocation_resultINS_16allocator_traitsIT_E7pointerEEERS6_m, symObjAddr: 0x3990, symBinAddr: 0x100006A20, symSize: 0x40 }
  - { offsetInCU: 0x6157, offset: 0x6157, size: 0x8, addend: 0x0, symName: __ZNSt3__117__libcpp_allocateB8ue170006Emm, symObjAddr: 0x3B18, symBinAddr: 0x100006BA8, symSize: 0x28 }
  - { offsetInCU: 0x6194, offset: 0x6194, size: 0x8, addend: 0x0, symName: __ZNSt3__121__libcpp_operator_newB8ue170006IJmEEEPvDpT_, symObjAddr: 0x3B40, symBinAddr: 0x100006BD0, symSize: 0x24 }
  - { offsetInCU: 0x61CD, offset: 0x61CD, size: 0x8, addend: 0x0, symName: __ZNSt3__142__uninitialized_allocator_move_if_noexceptB8ue170006INS_9allocatorI8ObstacleEENS_16reverse_iteratorIPS2_EES6_S2_vEET1_RT_T0_SA_S7_, symObjAddr: 0x3BC8, symBinAddr: 0x100006C58, symSize: 0x78 }
  - { offsetInCU: 0x624A, offset: 0x624A, size: 0x8, addend: 0x0, symName: __ZNSt3__14swapB8ue170006IP8ObstacleEENS_9enable_ifIXaasr21is_move_constructibleIT_EE5valuesr18is_move_assignableIS4_EE5valueEvE4typeERS4_S7_, symObjAddr: 0x3C8C, symBinAddr: 0x100006D1C, symSize: 0x3C }
  - { offsetInCU: 0x629B, offset: 0x629B, size: 0x8, addend: 0x0, symName: __ZNSt3__14moveB8ue170006INS_16reverse_iteratorIP8ObstacleEES4_EET0_T_S6_S5_, symObjAddr: 0x3D90, symBinAddr: 0x100006E20, symSize: 0x78 }
  - { offsetInCU: 0x62F5, offset: 0x62F5, size: 0x8, addend: 0x0, symName: __ZNSt3__16__moveB8ue170006INS_17_ClassicAlgPolicyENS_16reverse_iteratorIP8ObstacleEES5_S5_EENS_4pairIT0_T2_EES7_T1_S8_, symObjAddr: 0x3E08, symBinAddr: 0x100006E98, symSize: 0x64 }
  - { offsetInCU: 0x6361, offset: 0x6361, size: 0x8, addend: 0x0, symName: __ZNSt3__123__dispatch_copy_or_moveB8ue170006INS_17_ClassicAlgPolicyENS_11__move_loopIS1_EENS_14__move_trivialENS_16reverse_iteratorIP8ObstacleEES8_S8_EENS_4pairIT2_T4_EESA_T3_SB_, symObjAddr: 0x3E6C, symBinAddr: 0x100006EFC, symSize: 0x64 }
  - { offsetInCU: 0x63DF, offset: 0x63DF, size: 0x8, addend: 0x0, symName: __ZNSt3__121__unwrap_and_dispatchB8ue170006INS_10__overloadINS_11__move_loopINS_17_ClassicAlgPolicyEEENS_14__move_trivialEEENS_16reverse_iteratorIP8ObstacleEESA_SA_Li0EEENS_4pairIT0_T2_EESC_T1_SD_, symObjAddr: 0x3ED0, symBinAddr: 0x100006F60, symSize: 0x12C }
  - { offsetInCU: 0x646F, offset: 0x646F, size: 0x8, addend: 0x0, symName: __ZNSt3__114__unwrap_rangeB8ue170006INS_16reverse_iteratorIP8ObstacleEES4_EENS_4pairIT0_S6_EET_S8_, symObjAddr: 0x3FFC, symBinAddr: 0x10000708C, symSize: 0x84 }
  - { offsetInCU: 0x65EA, offset: 0x65EA, size: 0x8, addend: 0x0, symName: __ZNSt3__113__unwrap_iterB8ue170006INS_16reverse_iteratorIP8ObstacleEENS_18__unwrap_iter_implIS4_Lb0EEELi0EEEDTclsrT0_8__unwrapclsr3stdE7declvalIT_EEEES8_, symObjAddr: 0x411C, symBinAddr: 0x1000071AC, symSize: 0x44 }
  - { offsetInCU: 0x662E, offset: 0x662E, size: 0x8, addend: 0x0, symName: __ZNSt3__19make_pairB8ue170006INS_16reverse_iteratorIP8ObstacleEES4_EENS_4pairINS_18__unwrap_ref_decayIT_E4typeENS6_IT0_E4typeEEEOS7_OSA_, symObjAddr: 0x4160, symBinAddr: 0x1000071F0, symSize: 0x38 }
  - { offsetInCU: 0x667D, offset: 0x667D, size: 0x8, addend: 0x0, symName: __ZNSt3__114__rewrap_rangeB8ue170006INS_16reverse_iteratorIP8ObstacleEES4_EET_S5_T0_, symObjAddr: 0x4198, symBinAddr: 0x100007228, symSize: 0x5C }
  - { offsetInCU: 0x66C9, offset: 0x66C9, size: 0x8, addend: 0x0, symName: __ZNSt3__113__rewrap_iterB8ue170006INS_16reverse_iteratorIP8ObstacleEES4_NS_18__unwrap_iter_implIS4_Lb0EEEEET_S7_T0_, symObjAddr: 0x41F4, symBinAddr: 0x100007284, symSize: 0x74 }
  - { offsetInCU: 0x671E, offset: 0x671E, size: 0x8, addend: 0x0, symName: __ZNSt3__1neB8ue170006IP8ObstacleS2_EEbRKNS_16reverse_iteratorIT_EERKNS3_IT0_EE, symObjAddr: 0x4268, symBinAddr: 0x1000072F8, symSize: 0x48 }
  - { offsetInCU: 0x681C, offset: 0x681C, size: 0x8, addend: 0x0, symName: __ZNSt3__1miB8ue170006IPK8ObstacleS3_EEDTmicldtfp_4baseEcldtfp0_4baseEERKNS_11__wrap_iterIT_EERKNS5_IT0_EE, symObjAddr: 0x46AC, symBinAddr: 0x10000773C, symSize: 0x48 }
  - { offsetInCU: 0x6868, offset: 0x6868, size: 0x8, addend: 0x0, symName: __ZNSt3__14moveB8ue170006IP8ObstacleS2_EET0_T_S4_S3_, symObjAddr: 0x476C, symBinAddr: 0x1000077FC, symSize: 0x40 }
  - { offsetInCU: 0x68C2, offset: 0x68C2, size: 0x8, addend: 0x0, symName: __ZNSt3__16__moveB8ue170006INS_17_ClassicAlgPolicyEP8ObstacleS3_S3_EENS_4pairIT0_T2_EES5_T1_S6_, symObjAddr: 0x4948, symBinAddr: 0x1000079D8, symSize: 0x44 }
  - { offsetInCU: 0x692E, offset: 0x692E, size: 0x8, addend: 0x0, symName: __ZNSt3__123__dispatch_copy_or_moveB8ue170006INS_17_ClassicAlgPolicyENS_11__move_loopIS1_EENS_14__move_trivialEP8ObstacleS6_S6_EENS_4pairIT2_T4_EES8_T3_S9_, symObjAddr: 0x498C, symBinAddr: 0x100007A1C, symSize: 0x44 }
  - { offsetInCU: 0x69AC, offset: 0x69AC, size: 0x8, addend: 0x0, symName: __ZNSt3__121__unwrap_and_dispatchB8ue170006INS_10__overloadINS_11__move_loopINS_17_ClassicAlgPolicyEEENS_14__move_trivialEEEP8ObstacleS8_S8_Li0EEENS_4pairIT0_T2_EESA_T1_SB_, symObjAddr: 0x49D0, symBinAddr: 0x100007A60, symSize: 0xB4 }
  - { offsetInCU: 0x6A3A, offset: 0x6A3A, size: 0x8, addend: 0x0, symName: __ZNSt3__114__unwrap_rangeB8ue170006IP8ObstacleS2_EENS_4pairIT0_S4_EET_S6_, symObjAddr: 0x4A84, symBinAddr: 0x100007B14, symSize: 0x60 }
  - { offsetInCU: 0x6BCF, offset: 0x6BCF, size: 0x8, addend: 0x0, symName: __ZNSt3__113__unwrap_iterB8ue170006IP8ObstacleNS_18__unwrap_iter_implIS2_Lb1EEELi0EEEDTclsrT0_8__unwrapclsr3stdE7declvalIT_EEEES6_, symObjAddr: 0x4B2C, symBinAddr: 0x100007BBC, symSize: 0x24 }
  - { offsetInCU: 0x6C13, offset: 0x6C13, size: 0x8, addend: 0x0, symName: __ZNSt3__19make_pairB8ue170006IP8ObstacleS2_EENS_4pairINS_18__unwrap_ref_decayIT_E4typeENS4_IT0_E4typeEEEOS5_OS8_, symObjAddr: 0x4B50, symBinAddr: 0x100007BE0, symSize: 0x38 }
  - { offsetInCU: 0x6C62, offset: 0x6C62, size: 0x8, addend: 0x0, symName: __ZNSt3__114__rewrap_rangeB8ue170006IP8ObstacleS2_EET_S3_T0_, symObjAddr: 0x4B88, symBinAddr: 0x100007C18, symSize: 0x2C }
  - { offsetInCU: 0x6CAE, offset: 0x6CAE, size: 0x8, addend: 0x0, symName: __ZNSt3__113__rewrap_iterB8ue170006IP8ObstacleS2_NS_18__unwrap_iter_implIS2_Lb1EEEEET_S5_T0_, symObjAddr: 0x4BB4, symBinAddr: 0x100007C44, symSize: 0x3C }
  - { offsetInCU: 0x6D03, offset: 0x6D03, size: 0x8, addend: 0x0, symName: __ZNSt3__119__copy_trivial_implB8ue170006I8ObstacleS1_EENS_4pairIPT_PT0_EES4_S4_S6_, symObjAddr: 0x4BF0, symBinAddr: 0x100007C80, symSize: 0x88 }
  - { offsetInCU: 0x6D6B, offset: 0x6D6B, size: 0x8, addend: 0x0, symName: __ZNSt3__119__constexpr_memmoveB8ue170006I8ObstacleS1_Li0EEEPT_S3_PT0_NS_15__element_countE, symObjAddr: 0x4C78, symBinAddr: 0x100007D08, symSize: 0x68 }
  - { offsetInCU: 0x6DD9, offset: 0x6DD9, size: 0x8, addend: 0x0, symName: __ZNSt3__19make_pairB8ue170006IRP8ObstacleS2_EENS_4pairINS_18__unwrap_ref_decayIT_E4typeENS5_IT0_E4typeEEEOS6_OS9_, symObjAddr: 0x4CE0, symBinAddr: 0x100007D70, symSize: 0x38 }
  - { offsetInCU: 0x717D, offset: 0x717D, size: 0x8, addend: 0x0, symName: __ZSt28__throw_bad_array_new_lengthB8ue170006v, symObjAddr: 0x3AE4, symBinAddr: 0x100006B74, symSize: 0x34 }
  - { offsetInCU: 0x79A0, offset: 0x79A0, size: 0x8, addend: 0x0, symName: __ZNSt3__16vectorI8ObstacleNS_9allocatorIS1_EEE26__swap_out_circular_bufferERNS_14__split_bufferIS1_RS3_EE, symObjAddr: 0x33EC, symBinAddr: 0x10000647C, symSize: 0x110 }
  - { offsetInCU: 0xA228, offset: 0xA228, size: 0x8, addend: 0x0, symName: __ZN4GameC2EP10SDL_Window, symObjAddr: 0x0, symBinAddr: 0x100003090, symSize: 0x120 }
  - { offsetInCU: 0xA260, offset: 0xA260, size: 0x8, addend: 0x0, symName: __ZNSt3__16vectorI8ObstacleNS_9allocatorIS1_EEEC1B8ue170006Ev, symObjAddr: 0x120, symBinAddr: 0x1000031B0, symSize: 0x2C }
  - { offsetInCU: 0xA288, offset: 0xA288, size: 0x8, addend: 0x0, symName: __ZN7TextboxD1Ev, symObjAddr: 0x14C, symBinAddr: 0x1000031DC, symSize: 0x2C }
  - { offsetInCU: 0xA2B2, offset: 0xA2B2, size: 0x8, addend: 0x0, symName: __ZNSt3__16vectorI8ObstacleNS_9allocatorIS1_EEED1B8ue170006Ev, symObjAddr: 0x178, symBinAddr: 0x100003208, symSize: 0x2C }
  - { offsetInCU: 0xA2DA, offset: 0xA2DA, size: 0x8, addend: 0x0, symName: __ZN10PopulationD1Ev, symObjAddr: 0x1A4, symBinAddr: 0x100003234, symSize: 0x2C }
  - { offsetInCU: 0xA304, offset: 0xA304, size: 0x8, addend: 0x0, symName: __ZN4GameC1EP10SDL_Window, symObjAddr: 0x1D0, symBinAddr: 0x100003260, symSize: 0x34 }
  - { offsetInCU: 0xA33C, offset: 0xA33C, size: 0x8, addend: 0x0, symName: __ZN4GameC2Eii, symObjAddr: 0x204, symBinAddr: 0x100003294, symSize: 0x410 }
  - { offsetInCU: 0xA387, offset: 0xA387, size: 0x8, addend: 0x0, symName: __ZNSt3__112basic_stringIcNS_11char_traitsIcEENS_9allocatorIcEEEC1B8ue170006ILi0EEEPKc, symObjAddr: 0x614, symBinAddr: 0x1000036A4, symSize: 0x34 }
  - { offsetInCU: 0xA3CE, offset: 0xA3CE, size: 0x8, addend: 0x0, symName: __ZN7TextboxaSEOS_, symObjAddr: 0x648, symBinAddr: 0x1000036D8, symSize: 0x5C }
  - { offsetInCU: 0xA3FC, offset: 0xA3FC, size: 0x8, addend: 0x0, symName: __ZN4GameC1Eii, symObjAddr: 0x6A4, symBinAddr: 0x100003734, symSize: 0x3C }
  - { offsetInCU: 0xA442, offset: 0xA442, size: 0x8, addend: 0x0, symName: __ZN4GameD2Ev, symObjAddr: 0x6E0, symBinAddr: 0x100003770, symSize: 0xF0 }
  - { offsetInCU: 0xA46C, offset: 0xA46C, size: 0x8, addend: 0x0, symName: __ZN6PlayerD1Ev, symObjAddr: 0x7D0, symBinAddr: 0x100003860, symSize: 0x2C }
  - { offsetInCU: 0xA496, offset: 0xA496, size: 0x8, addend: 0x0, symName: __ZN4GameD1Ev, symObjAddr: 0x7FC, symBinAddr: 0x10000388C, symSize: 0x2C }
  - { offsetInCU: 0xA4C0, offset: 0xA4C0, size: 0x8, addend: 0x0, symName: __ZN4Game11initPlayersEddiidd, symObjAddr: 0x828, symBinAddr: 0x1000038B8, symSize: 0x2C8 }
  - { offsetInCU: 0xA559, offset: 0xA559, size: 0x8, addend: 0x0, symName: __ZN10PopulationaSEOS_, symObjAddr: 0xAF0, symBinAddr: 0x100003B80, symSize: 0x48 }
  - { offsetInCU: 0xA587, offset: 0xA587, size: 0x8, addend: 0x0, symName: __ZNSt3__16vectorI5ModelNS_9allocatorIS1_EEEixB8ue170006Em, symObjAddr: 0xB38, symBinAddr: 0x100003BC8, symSize: 0x2C }
  - { offsetInCU: 0xA5BC, offset: 0xA5BC, size: 0x8, addend: 0x0, symName: __ZN4Game11addObstacleEv, symObjAddr: 0xB64, symBinAddr: 0x100003BF4, symSize: 0x48 }
  - { offsetInCU: 0xA5E2, offset: 0xA5E2, size: 0x8, addend: 0x0, symName: __ZNSt3__16vectorI8ObstacleNS_9allocatorIS1_EEE9push_backB8ue170006EOS1_, symObjAddr: 0xBAC, symBinAddr: 0x100003C3C, symSize: 0x6C }
  - { offsetInCU: 0xA617, offset: 0xA617, size: 0x8, addend: 0x0, symName: __ZN4Game20checkPlayerCollisionE8Obstacle, symObjAddr: 0xC18, symBinAddr: 0x100003CA8, symSize: 0x4A4 }
  - { offsetInCU: 0xA6DB, offset: 0xA6DB, size: 0x8, addend: 0x0, symName: __ZNKSt3__16vectorI8ObstacleNS_9allocatorIS1_EEE4sizeB8ue170006Ev, symObjAddr: 0x10BC, symBinAddr: 0x10000414C, symSize: 0x28 }
  - { offsetInCU: 0xA6FF, offset: 0xA6FF, size: 0x8, addend: 0x0, symName: __ZNSt3__16vectorI8ObstacleNS_9allocatorIS1_EEEixB8ue170006Em, symObjAddr: 0x10E4, symBinAddr: 0x100004174, symSize: 0x2C }
  - { offsetInCU: 0xA734, offset: 0xA734, size: 0x8, addend: 0x0, symName: __Z3absB8ue170006d, symObjAddr: 0x1110, symBinAddr: 0x1000041A0, symSize: 0x18 }
  - { offsetInCU: 0xA760, offset: 0xA760, size: 0x8, addend: 0x0, symName: __ZN4Game21setAllLivingFitnessesEv, symObjAddr: 0x1128, symBinAddr: 0x1000041B8, symSize: 0xBC }
  - { offsetInCU: 0xA7A2, offset: 0xA7A2, size: 0x8, addend: 0x0, symName: __ZN4Game15deleteObstaclesEv, symObjAddr: 0x11E4, symBinAddr: 0x100004274, symSize: 0xD8 }
  - { offsetInCU: 0xA7D6, offset: 0xA7D6, size: 0x8, addend: 0x0, symName: __ZNSt3__16vectorI8ObstacleNS_9allocatorIS1_EEE5eraseB8ue170006ENS_11__wrap_iterIPKS1_EE, symObjAddr: 0x12BC, symBinAddr: 0x10000434C, symSize: 0x9C }
  - { offsetInCU: 0xA829, offset: 0xA829, size: 0x8, addend: 0x0, symName: __ZNSt3__16vectorI8ObstacleNS_9allocatorIS1_EEE5beginB8ue170006Ev, symObjAddr: 0x1358, symBinAddr: 0x1000043E8, symSize: 0x30 }
  - { offsetInCU: 0xA84F, offset: 0xA84F, size: 0x8, addend: 0x0, symName: __ZNKSt3__111__wrap_iterIP8ObstacleEplB8ue170006El, symObjAddr: 0x1388, symBinAddr: 0x100004418, symSize: 0x3C }
  - { offsetInCU: 0xA899, offset: 0xA899, size: 0x8, addend: 0x0, symName: __ZNSt3__111__wrap_iterIPK8ObstacleEC1B8ue170006IPS1_EERKNS0_IT_EEPNS_9enable_ifIXsr14is_convertibleIS7_S3_EE5valueEvE4typeE, symObjAddr: 0x13C4, symBinAddr: 0x100004454, symSize: 0x3C }
  - { offsetInCU: 0xA8E2, offset: 0xA8E2, size: 0x8, addend: 0x0, symName: __ZN4Game6updateEddd, symObjAddr: 0x1400, symBinAddr: 0x100004490, symSize: 0x334 }
  - { offsetInCU: 0xA9D2, offset: 0xA9D2, size: 0x8, addend: 0x0, symName: __ZN4Game5resetEv, symObjAddr: 0x1734, symBinAddr: 0x1000047C4, symSize: 0x1E8 }
  - { offsetInCU: 0xAA14, offset: 0xAA14, size: 0x8, addend: 0x0, symName: __ZN4Game6renderEP12SDL_RendererP10SDL_Window, symObjAddr: 0x191C, symBinAddr: 0x1000049AC, symSize: 0x144 }
  - { offsetInCU: 0xAA8E, offset: 0xAA8E, size: 0x8, addend: 0x0, symName: __ZN7TextboxD2Ev, symObjAddr: 0x1A60, symBinAddr: 0x100004AF0, symSize: 0x30 }
  - { offsetInCU: 0xAAB8, offset: 0xAAB8, size: 0x8, addend: 0x0, symName: __ZN10PopulationD2Ev, symObjAddr: 0x1A90, symBinAddr: 0x100004B20, symSize: 0x30 }
  - { offsetInCU: 0xAAE2, offset: 0xAAE2, size: 0x8, addend: 0x0, symName: __ZNSt3__16vectorI5ModelNS_9allocatorIS1_EEED1B8ue170006Ev, symObjAddr: 0x1AC0, symBinAddr: 0x100004B50, symSize: 0x2C }
  - { offsetInCU: 0xAB0A, offset: 0xAB0A, size: 0x8, addend: 0x0, symName: __ZNSt3__16vectorI5ModelNS_9allocatorIS1_EEED2B8ue170006Ev, symObjAddr: 0x1AEC, symBinAddr: 0x100004B7C, symSize: 0x44 }
  - { offsetInCU: 0xAB32, offset: 0xAB32, size: 0x8, addend: 0x0, symName: __ZNSt3__16vectorI5ModelNS_9allocatorIS1_EEE16__destroy_vectorC1B8ue170006ERS4_, symObjAddr: 0x1B30, symBinAddr: 0x100004BC0, symSize: 0x34 }
  - { offsetInCU: 0xAB69, offset: 0xAB69, size: 0x8, addend: 0x0, symName: __ZNSt3__16vectorI5ModelNS_9allocatorIS1_EEE16__destroy_vectorclB8ue170006Ev, symObjAddr: 0x1B70, symBinAddr: 0x100004C00, symSize: 0x90 }
  - { offsetInCU: 0xAB8E, offset: 0xAB8E, size: 0x8, addend: 0x0, symName: __ZNSt3__16vectorI5ModelNS_9allocatorIS1_EEE16__destroy_vectorC2B8ue170006ERS4_, symObjAddr: 0x1C00, symBinAddr: 0x100004C90, symSize: 0x20 }
  - { offsetInCU: 0xABC4, offset: 0xABC4, size: 0x8, addend: 0x0, symName: __ZNSt3__16vectorI5ModelNS_9allocatorIS1_EEE7__clearB8ue170006Ev, symObjAddr: 0x1C20, symBinAddr: 0x100004CB0, symSize: 0x28 }
  - { offsetInCU: 0xABE8, offset: 0xABE8, size: 0x8, addend: 0x0, symName: __ZNKSt3__16vectorI5ModelNS_9allocatorIS1_EEE17__annotate_deleteB8ue170006Ev, symObjAddr: 0x1C48, symBinAddr: 0x100004CD8, symSize: 0xD4 }
  - { offsetInCU: 0xAC0D, offset: 0xAC0D, size: 0x8, addend: 0x0, symName: __ZNSt3__116allocator_traitsINS_9allocatorI5ModelEEE10deallocateB8ue170006ERS3_PS2_m, symObjAddr: 0x1D1C, symBinAddr: 0x100004DAC, symSize: 0x34 }
  - { offsetInCU: 0xAC4D, offset: 0xAC4D, size: 0x8, addend: 0x0, symName: __ZNSt3__16vectorI5ModelNS_9allocatorIS1_EEE7__allocB8ue170006Ev, symObjAddr: 0x1D50, symBinAddr: 0x100004DE0, symSize: 0x28 }
  - { offsetInCU: 0xAC71, offset: 0xAC71, size: 0x8, addend: 0x0, symName: __ZNKSt3__16vectorI5ModelNS_9allocatorIS1_EEE8capacityB8ue170006Ev, symObjAddr: 0x1D78, symBinAddr: 0x100004E08, symSize: 0x40 }
  - { offsetInCU: 0xAC95, offset: 0xAC95, size: 0x8, addend: 0x0, symName: __ZNSt3__16vectorI5ModelNS_9allocatorIS1_EEE22__base_destruct_at_endB8ue170006EPS1_, symObjAddr: 0x1DB8, symBinAddr: 0x100004E48, symSize: 0x8C }
  - { offsetInCU: 0xACD8, offset: 0xACD8, size: 0x8, addend: 0x0, symName: __ZNSt3__116allocator_traitsINS_9allocatorI5ModelEEE7destroyB8ue170006IS2_vEEvRS3_PT_, symObjAddr: 0x1E44, symBinAddr: 0x100004ED4, symSize: 0x2C }
  - { offsetInCU: 0xAD13, offset: 0xAD13, size: 0x8, addend: 0x0, symName: __ZNSt3__19allocatorI5ModelE7destroyB8ue170006EPS1_, symObjAddr: 0x1E84, symBinAddr: 0x100004F14, symSize: 0x28 }
  - { offsetInCU: 0xAD45, offset: 0xAD45, size: 0x8, addend: 0x0, symName: __ZN5ModelD1Ev, symObjAddr: 0x1EAC, symBinAddr: 0x100004F3C, symSize: 0x2C }
  - { offsetInCU: 0xAD6F, offset: 0xAD6F, size: 0x8, addend: 0x0, symName: __ZN5ModelD2Ev, symObjAddr: 0x1ED8, symBinAddr: 0x100004F68, symSize: 0x2C }
  - { offsetInCU: 0xAD99, offset: 0xAD99, size: 0x8, addend: 0x0, symName: __ZNKSt3__16vectorI5ModelNS_9allocatorIS1_EEE31__annotate_contiguous_containerB8ue170006EPKvS6_S6_S6_, symObjAddr: 0x1F04, symBinAddr: 0x100004F94, symSize: 0x20 }
  - { offsetInCU: 0xADE9, offset: 0xADE9, size: 0x8, addend: 0x0, symName: __ZNKSt3__16vectorI5ModelNS_9allocatorIS1_EEE4dataB8ue170006Ev, symObjAddr: 0x1F24, symBinAddr: 0x100004FB4, symSize: 0x28 }
  - { offsetInCU: 0xAE0D, offset: 0xAE0D, size: 0x8, addend: 0x0, symName: __ZNKSt3__16vectorI5ModelNS_9allocatorIS1_EEE4sizeB8ue170006Ev, symObjAddr: 0x1F4C, symBinAddr: 0x100004FDC, symSize: 0x28 }
  - { offsetInCU: 0xAE31, offset: 0xAE31, size: 0x8, addend: 0x0, symName: __ZNSt3__19allocatorI5ModelE10deallocateB8ue170006EPS1_m, symObjAddr: 0x1F74, symBinAddr: 0x100005004, symSize: 0x44 }
  - { offsetInCU: 0xAE71, offset: 0xAE71, size: 0x8, addend: 0x0, symName: __ZNSt3__117__compressed_pairIP5ModelNS_9allocatorIS1_EEE6secondB8ue170006Ev, symObjAddr: 0x2034, symBinAddr: 0x1000050C4, symSize: 0x24 }
  - { offsetInCU: 0xAE95, offset: 0xAE95, size: 0x8, addend: 0x0, symName: __ZNSt3__122__compressed_pair_elemINS_9allocatorI5ModelEELi1ELb1EE5__getB8ue170006Ev, symObjAddr: 0x2058, symBinAddr: 0x1000050E8, symSize: 0x14 }
  - { offsetInCU: 0xAEB9, offset: 0xAEB9, size: 0x8, addend: 0x0, symName: __ZNKSt3__16vectorI5ModelNS_9allocatorIS1_EEE9__end_capB8ue170006Ev, symObjAddr: 0x206C, symBinAddr: 0x1000050FC, symSize: 0x28 }
  - { offsetInCU: 0xAEDD, offset: 0xAEDD, size: 0x8, addend: 0x0, symName: __ZNKSt3__117__compressed_pairIP5ModelNS_9allocatorIS1_EEE5firstB8ue170006Ev, symObjAddr: 0x2094, symBinAddr: 0x100005124, symSize: 0x24 }
  - { offsetInCU: 0xAF01, offset: 0xAF01, size: 0x8, addend: 0x0, symName: __ZNKSt3__122__compressed_pair_elemIP5ModelLi0ELb0EE5__getB8ue170006Ev, symObjAddr: 0x20B8, symBinAddr: 0x100005148, symSize: 0x14 }
  - { offsetInCU: 0xAF25, offset: 0xAF25, size: 0x8, addend: 0x0, symName: __ZNSt3__112basic_stringIcNS_11char_traitsIcEENS_9allocatorIcEEEaSB8ue170006EOS5_, symObjAddr: 0x20CC, symBinAddr: 0x10000515C, symSize: 0x34 }
  - { offsetInCU: 0xAF58, offset: 0xAF58, size: 0x8, addend: 0x0, symName: __ZNSt3__112basic_stringIcNS_11char_traitsIcEENS_9allocatorIcEEE13__move_assignB8ue170006ERS5_NS_17integral_constantIbLb1EEE, symObjAddr: 0x2100, symBinAddr: 0x100005190, symSize: 0xC8 }
  - { offsetInCU: 0xAF98, offset: 0xAF98, size: 0x8, addend: 0x0, symName: __ZNKSt3__112basic_stringIcNS_11char_traitsIcEENS_9allocatorIcEEE9__is_longB8ue170006Ev, symObjAddr: 0x21C8, symBinAddr: 0x100005258, symSize: 0x38 }
  - { offsetInCU: 0xAFBD, offset: 0xAFBD, size: 0x8, addend: 0x0, symName: __ZNSt3__116allocator_traitsINS_9allocatorIcEEE10deallocateB8ue170006ERS2_Pcm, symObjAddr: 0x2200, symBinAddr: 0x100005290, symSize: 0x34 }
  - { offsetInCU: 0xAFFD, offset: 0xAFFD, size: 0x8, addend: 0x0, symName: __ZNSt3__112basic_stringIcNS_11char_traitsIcEENS_9allocatorIcEEE7__allocB8ue170006Ev, symObjAddr: 0x2234, symBinAddr: 0x1000052C4, symSize: 0x24 }
  - { offsetInCU: 0xB021, offset: 0xB021, size: 0x8, addend: 0x0, symName: __ZNSt3__112basic_stringIcNS_11char_traitsIcEENS_9allocatorIcEEE18__get_long_pointerB8ue170006Ev, symObjAddr: 0x2258, symBinAddr: 0x1000052E8, symSize: 0x28 }
  - { offsetInCU: 0xB045, offset: 0xB045, size: 0x8, addend: 0x0, symName: __ZNKSt3__112basic_stringIcNS_11char_traitsIcEENS_9allocatorIcEEE14__get_long_capB8ue170006Ev, symObjAddr: 0x2280, symBinAddr: 0x100005310, symSize: 0x30 }
  - { offsetInCU: 0xB069, offset: 0xB069, size: 0x8, addend: 0x0, symName: __ZNSt3__112basic_stringIcNS_11char_traitsIcEENS_9allocatorIcEEE19__move_assign_allocB8ue170006ERS5_, symObjAddr: 0x22B0, symBinAddr: 0x100005340, symSize: 0x2C }
  - { offsetInCU: 0xB09C, offset: 0xB09C, size: 0x8, addend: 0x0, symName: __ZNSt3__117__compressed_pairINS_12basic_stringIcNS_11char_traitsIcEENS_9allocatorIcEEE5__repES5_E5firstB8ue170006Ev, symObjAddr: 0x22DC, symBinAddr: 0x10000536C, symSize: 0x24 }
  - { offsetInCU: 0xB0C0, offset: 0xB0C0, size: 0x8, addend: 0x0, symName: __ZNSt3__112basic_stringIcNS_11char_traitsIcEENS_9allocatorIcEEE16__set_short_sizeB8ue170006Em, symObjAddr: 0x2300, symBinAddr: 0x100005390, symSize: 0x78 }
  - { offsetInCU: 0xB0F4, offset: 0xB0F4, size: 0x8, addend: 0x0, symName: __ZNSt3__111char_traitsIcE6assignB8ue170006ERcRKc, symObjAddr: 0x2378, symBinAddr: 0x100005408, symSize: 0x24 }
  - { offsetInCU: 0xB124, offset: 0xB124, size: 0x8, addend: 0x0, symName: __ZNSt3__112basic_stringIcNS_11char_traitsIcEENS_9allocatorIcEEE19__get_short_pointerB8ue170006Ev, symObjAddr: 0x239C, symBinAddr: 0x10000542C, symSize: 0x28 }
  - { offsetInCU: 0xB148, offset: 0xB148, size: 0x8, addend: 0x0, symName: __ZNKSt3__117__compressed_pairINS_12basic_stringIcNS_11char_traitsIcEENS_9allocatorIcEEE5__repES5_E5firstB8ue170006Ev, symObjAddr: 0x23C4, symBinAddr: 0x100005454, symSize: 0x24 }
  - { offsetInCU: 0xB16C, offset: 0xB16C, size: 0x8, addend: 0x0, symName: __ZNKSt3__122__compressed_pair_elemINS_12basic_stringIcNS_11char_traitsIcEENS_9allocatorIcEEE5__repELi0ELb0EE5__getB8ue170006Ev, symObjAddr: 0x23E8, symBinAddr: 0x100005478, symSize: 0x14 }
  - { offsetInCU: 0xB190, offset: 0xB190, size: 0x8, addend: 0x0, symName: __ZNSt3__19allocatorIcE10deallocateB8ue170006EPcm, symObjAddr: 0x23FC, symBinAddr: 0x10000548C, symSize: 0x40 }
  - { offsetInCU: 0xB1D0, offset: 0xB1D0, size: 0x8, addend: 0x0, symName: __ZNSt3__117__compressed_pairINS_12basic_stringIcNS_11char_traitsIcEENS_9allocatorIcEEE5__repES5_E6secondB8ue170006Ev, symObjAddr: 0x243C, symBinAddr: 0x1000054CC, symSize: 0x24 }
  - { offsetInCU: 0xB1F4, offset: 0xB1F4, size: 0x8, addend: 0x0, symName: __ZNSt3__122__compressed_pair_elemINS_9allocatorIcEELi1ELb1EE5__getB8ue170006Ev, symObjAddr: 0x2460, symBinAddr: 0x1000054F0, symSize: 0x14 }
  - { offsetInCU: 0xB218, offset: 0xB218, size: 0x8, addend: 0x0, symName: __ZNSt3__112basic_stringIcNS_11char_traitsIcEENS_9allocatorIcEEE19__move_assign_allocB8ue170006ERS5_NS_17integral_constantIbLb1EEE, symObjAddr: 0x2474, symBinAddr: 0x100005504, symSize: 0x38 }
  - { offsetInCU: 0xB256, offset: 0xB256, size: 0x8, addend: 0x0, symName: __ZNSt3__122__compressed_pair_elemINS_12basic_stringIcNS_11char_traitsIcEENS_9allocatorIcEEE5__repELi0ELb0EE5__getB8ue170006Ev, symObjAddr: 0x24AC, symBinAddr: 0x10000553C, symSize: 0x14 }
  - { offsetInCU: 0xB27B, offset: 0xB27B, size: 0x8, addend: 0x0, symName: __ZNSt3__114pointer_traitsIPcE10pointer_toB8ue170006ERc, symObjAddr: 0x24C0, symBinAddr: 0x100005550, symSize: 0x14 }
  - { offsetInCU: 0xB29D, offset: 0xB29D, size: 0x8, addend: 0x0, symName: __ZN6PlayerD2Ev, symObjAddr: 0x24D4, symBinAddr: 0x100005564, symSize: 0x2C }
  - { offsetInCU: 0xB2C7, offset: 0xB2C7, size: 0x8, addend: 0x0, symName: __ZNSt3__16vectorI5ModelNS_9allocatorIS1_EEEaSB8ue170006EOS4_, symObjAddr: 0x2500, symBinAddr: 0x100005590, symSize: 0x34 }
  - { offsetInCU: 0xB2FC, offset: 0xB2FC, size: 0x8, addend: 0x0, symName: __ZNSt3__16vectorI5ModelNS_9allocatorIS1_EEE13__move_assignERS4_NS_17integral_constantIbLb1EEE, symObjAddr: 0x2534, symBinAddr: 0x1000055C4, symSize: 0x94 }
  - { offsetInCU: 0xB33C, offset: 0xB33C, size: 0x8, addend: 0x0, symName: __ZNSt3__16vectorI5ModelNS_9allocatorIS1_EEE13__vdeallocateEv, symObjAddr: 0x25C8, symBinAddr: 0x100005658, symSize: 0x94 }
  - { offsetInCU: 0xB362, offset: 0xB362, size: 0x8, addend: 0x0, symName: __ZNSt3__16vectorI5ModelNS_9allocatorIS1_EEE19__move_assign_allocB8ue170006ERS4_, symObjAddr: 0x265C, symBinAddr: 0x1000056EC, symSize: 0x2C }
  - { offsetInCU: 0xB395, offset: 0xB395, size: 0x8, addend: 0x0, symName: __ZNSt3__16vectorI5ModelNS_9allocatorIS1_EEE9__end_capB8ue170006Ev, symObjAddr: 0x2688, symBinAddr: 0x100005718, symSize: 0x28 }
  - { offsetInCU: 0xB3B9, offset: 0xB3B9, size: 0x8, addend: 0x0, symName: __ZNSt3__16vectorI5ModelNS_9allocatorIS1_EEE5clearB8ue170006Ev, symObjAddr: 0x26B0, symBinAddr: 0x100005740, symSize: 0x44 }
  - { offsetInCU: 0xB3EC, offset: 0xB3EC, size: 0x8, addend: 0x0, symName: __ZNKSt3__16vectorI5ModelNS_9allocatorIS1_EEE17__annotate_shrinkB8ue170006Em, symObjAddr: 0x26F4, symBinAddr: 0x100005784, symSize: 0xD0 }
  - { offsetInCU: 0xB41F, offset: 0xB41F, size: 0x8, addend: 0x0, symName: __ZNSt3__16vectorI5ModelNS_9allocatorIS1_EEE19__move_assign_allocB8ue170006ERS4_NS_17integral_constantIbLb1EEE, symObjAddr: 0x27C4, symBinAddr: 0x100005854, symSize: 0x38 }
  - { offsetInCU: 0xB45D, offset: 0xB45D, size: 0x8, addend: 0x0, symName: __ZNSt3__117__compressed_pairIP5ModelNS_9allocatorIS1_EEE5firstB8ue170006Ev, symObjAddr: 0x27FC, symBinAddr: 0x10000588C, symSize: 0x24 }
  - { offsetInCU: 0xB481, offset: 0xB481, size: 0x8, addend: 0x0, symName: __ZNSt3__122__compressed_pair_elemIP5ModelLi0ELb0EE5__getB8ue170006Ev, symObjAddr: 0x2820, symBinAddr: 0x1000058B0, symSize: 0x14 }
  - { offsetInCU: 0xB4A5, offset: 0xB4A5, size: 0x8, addend: 0x0, symName: __ZNSt3__112basic_stringIcNS_11char_traitsIcEENS_9allocatorIcEEEC2B8ue170006ILi0EEEPKc, symObjAddr: 0x2834, symBinAddr: 0x1000058C4, symSize: 0x58 }
  - { offsetInCU: 0xB4E7, offset: 0xB4E7, size: 0x8, addend: 0x0, symName: __ZNSt3__117__compressed_pairINS_12basic_stringIcNS_11char_traitsIcEENS_9allocatorIcEEE5__repES5_EC1B8ue170006INS_18__default_init_tagESA_EEOT_OT0_, symObjAddr: 0x288C, symBinAddr: 0x10000591C, symSize: 0x3C }
  - { offsetInCU: 0xB53E, offset: 0xB53E, size: 0x8, addend: 0x0, symName: __ZNSt3__111char_traitsIcE6lengthB8ue170006EPKc, symObjAddr: 0x28C8, symBinAddr: 0x100005958, symSize: 0x34 }
  - { offsetInCU: 0xB55F, offset: 0xB55F, size: 0x8, addend: 0x0, symName: __ZNSt3__117__compressed_pairINS_12basic_stringIcNS_11char_traitsIcEENS_9allocatorIcEEE5__repES5_EC2B8ue170006INS_18__default_init_tagESA_EEOT_OT0_, symObjAddr: 0x28FC, symBinAddr: 0x10000598C, symSize: 0x3C }
  - { offsetInCU: 0xB5B6, offset: 0xB5B6, size: 0x8, addend: 0x0, symName: __ZNSt3__122__compressed_pair_elemINS_12basic_stringIcNS_11char_traitsIcEENS_9allocatorIcEEE5__repELi0ELb0EEC2B8ue170006ENS_18__default_init_tagE, symObjAddr: 0x2938, symBinAddr: 0x1000059C8, symSize: 0x14 }
  - { offsetInCU: 0xB5E7, offset: 0xB5E7, size: 0x8, addend: 0x0, symName: __ZNSt3__122__compressed_pair_elemINS_9allocatorIcEELi1ELb1EEC2B8ue170006ENS_18__default_init_tagE, symObjAddr: 0x294C, symBinAddr: 0x1000059DC, symSize: 0x2C }
  - { offsetInCU: 0xB619, offset: 0xB619, size: 0x8, addend: 0x0, symName: __ZNSt3__19allocatorIcEC2B8ue170006Ev, symObjAddr: 0x2978, symBinAddr: 0x100005A08, symSize: 0x2C }
  - { offsetInCU: 0xB642, offset: 0xB642, size: 0x8, addend: 0x0, symName: __ZNSt3__116__non_trivial_ifILb1ENS_9allocatorIcEEEC2B8ue170006Ev, symObjAddr: 0x29A4, symBinAddr: 0x100005A34, symSize: 0x14 }
  - { offsetInCU: 0xB669, offset: 0xB669, size: 0x8, addend: 0x0, symName: __ZNSt3__16vectorI8ObstacleNS_9allocatorIS1_EEEC2B8ue170006Ev, symObjAddr: 0x29DC, symBinAddr: 0x100005A6C, symSize: 0x4C }
  - { offsetInCU: 0xB696, offset: 0xB696, size: 0x8, addend: 0x0, symName: __ZNSt3__117__compressed_pairIP8ObstacleNS_9allocatorIS1_EEEC1B8ue170006IDnNS_18__default_init_tagEEEOT_OT0_, symObjAddr: 0x2A28, symBinAddr: 0x100005AB8, symSize: 0x3C }
  - { offsetInCU: 0xB6EC, offset: 0xB6EC, size: 0x8, addend: 0x0, symName: __ZNSt3__117__compressed_pairIP8ObstacleNS_9allocatorIS1_EEEC2B8ue170006IDnNS_18__default_init_tagEEEOT_OT0_, symObjAddr: 0x2A64, symBinAddr: 0x100005AF4, symSize: 0x40 }
  - { offsetInCU: 0xB743, offset: 0xB743, size: 0x8, addend: 0x0, symName: __ZNSt3__122__compressed_pair_elemIP8ObstacleLi0ELb0EEC2B8ue170006IDnvEEOT_, symObjAddr: 0x2AA4, symBinAddr: 0x100005B34, symSize: 0x1C }
  - { offsetInCU: 0xB782, offset: 0xB782, size: 0x8, addend: 0x0, symName: __ZNSt3__122__compressed_pair_elemINS_9allocatorI8ObstacleEELi1ELb1EEC2B8ue170006ENS_18__default_init_tagE, symObjAddr: 0x2AC0, symBinAddr: 0x100005B50, symSize: 0x2C }
  - { offsetInCU: 0xB7B4, offset: 0xB7B4, size: 0x8, addend: 0x0, symName: __ZNSt3__19allocatorI8ObstacleEC2B8ue170006Ev, symObjAddr: 0x2AEC, symBinAddr: 0x100005B7C, symSize: 0x2C }
  - { offsetInCU: 0xB7DD, offset: 0xB7DD, size: 0x8, addend: 0x0, symName: __ZNSt3__116__non_trivial_ifILb1ENS_9allocatorI8ObstacleEEEC2B8ue170006Ev, symObjAddr: 0x2B18, symBinAddr: 0x100005BA8, symSize: 0x14 }
  - { offsetInCU: 0xB804, offset: 0xB804, size: 0x8, addend: 0x0, symName: __ZNSt3__16vectorI8ObstacleNS_9allocatorIS1_EEED2B8ue170006Ev, symObjAddr: 0x2B2C, symBinAddr: 0x100005BBC, symSize: 0x44 }
  - { offsetInCU: 0xB82C, offset: 0xB82C, size: 0x8, addend: 0x0, symName: __ZNSt3__16vectorI8ObstacleNS_9allocatorIS1_EEE16__destroy_vectorC1B8ue170006ERS4_, symObjAddr: 0x2B70, symBinAddr: 0x100005C00, symSize: 0x34 }
  - { offsetInCU: 0xB863, offset: 0xB863, size: 0x8, addend: 0x0, symName: __ZNSt3__16vectorI8ObstacleNS_9allocatorIS1_EEE16__destroy_vectorclB8ue170006Ev, symObjAddr: 0x2BA4, symBinAddr: 0x100005C34, symSize: 0x90 }
  - { offsetInCU: 0xB888, offset: 0xB888, size: 0x8, addend: 0x0, symName: __ZNSt3__16vectorI8ObstacleNS_9allocatorIS1_EEE16__destroy_vectorC2B8ue170006ERS4_, symObjAddr: 0x2C34, symBinAddr: 0x100005CC4, symSize: 0x20 }
  - { offsetInCU: 0xB8BE, offset: 0xB8BE, size: 0x8, addend: 0x0, symName: __ZNSt3__16vectorI8ObstacleNS_9allocatorIS1_EEE7__clearB8ue170006Ev, symObjAddr: 0x2C54, symBinAddr: 0x100005CE4, symSize: 0x28 }
  - { offsetInCU: 0xB8E2, offset: 0xB8E2, size: 0x8, addend: 0x0, symName: __ZNKSt3__16vectorI8ObstacleNS_9allocatorIS1_EEE17__annotate_deleteB8ue170006Ev, symObjAddr: 0x2C7C, symBinAddr: 0x100005D0C, symSize: 0xD4 }
  - { offsetInCU: 0xB907, offset: 0xB907, size: 0x8, addend: 0x0, symName: __ZNSt3__116allocator_traitsINS_9allocatorI8ObstacleEEE10deallocateB8ue170006ERS3_PS2_m, symObjAddr: 0x2D50, symBinAddr: 0x100005DE0, symSize: 0x34 }
  - { offsetInCU: 0xB947, offset: 0xB947, size: 0x8, addend: 0x0, symName: __ZNSt3__16vectorI8ObstacleNS_9allocatorIS1_EEE7__allocB8ue170006Ev, symObjAddr: 0x2D84, symBinAddr: 0x100005E14, symSize: 0x28 }
  - { offsetInCU: 0xB96B, offset: 0xB96B, size: 0x8, addend: 0x0, symName: __ZNKSt3__16vectorI8ObstacleNS_9allocatorIS1_EEE8capacityB8ue170006Ev, symObjAddr: 0x2DAC, symBinAddr: 0x100005E3C, symSize: 0x40 }
  - { offsetInCU: 0xB98F, offset: 0xB98F, size: 0x8, addend: 0x0, symName: __ZNSt3__16vectorI8ObstacleNS_9allocatorIS1_EEE22__base_destruct_at_endB8ue170006EPS1_, symObjAddr: 0x2DEC, symBinAddr: 0x100005E7C, symSize: 0x8C }
  - { offsetInCU: 0xB9D2, offset: 0xB9D2, size: 0x8, addend: 0x0, symName: __ZNSt3__116allocator_traitsINS_9allocatorI8ObstacleEEE7destroyB8ue170006IS2_vEEvRS3_PT_, symObjAddr: 0x2E78, symBinAddr: 0x100005F08, symSize: 0x2C }
  - { offsetInCU: 0xBA0D, offset: 0xBA0D, size: 0x8, addend: 0x0, symName: __ZNSt3__19allocatorI8ObstacleE7destroyB8ue170006EPS1_, symObjAddr: 0x2EB8, symBinAddr: 0x100005F48, symSize: 0x14 }
  - { offsetInCU: 0xBA3F, offset: 0xBA3F, size: 0x8, addend: 0x0, symName: __ZNKSt3__16vectorI8ObstacleNS_9allocatorIS1_EEE31__annotate_contiguous_containerB8ue170006EPKvS6_S6_S6_, symObjAddr: 0x2ECC, symBinAddr: 0x100005F5C, symSize: 0x20 }
  - { offsetInCU: 0xBA8F, offset: 0xBA8F, size: 0x8, addend: 0x0, symName: __ZNKSt3__16vectorI8ObstacleNS_9allocatorIS1_EEE4dataB8ue170006Ev, symObjAddr: 0x2EEC, symBinAddr: 0x100005F7C, symSize: 0x28 }
  - { offsetInCU: 0xBAB3, offset: 0xBAB3, size: 0x8, addend: 0x0, symName: __ZNSt3__19allocatorI8ObstacleE10deallocateB8ue170006EPS1_m, symObjAddr: 0x2F14, symBinAddr: 0x100005FA4, symSize: 0x44 }
  - { offsetInCU: 0xBAF3, offset: 0xBAF3, size: 0x8, addend: 0x0, symName: __ZNSt3__117__compressed_pairIP8ObstacleNS_9allocatorIS1_EEE6secondB8ue170006Ev, symObjAddr: 0x2F58, symBinAddr: 0x100005FE8, symSize: 0x24 }
  - { offsetInCU: 0xBB17, offset: 0xBB17, size: 0x8, addend: 0x0, symName: __ZNSt3__122__compressed_pair_elemINS_9allocatorI8ObstacleEELi1ELb1EE5__getB8ue170006Ev, symObjAddr: 0x2F7C, symBinAddr: 0x10000600C, symSize: 0x14 }
  - { offsetInCU: 0xBB3B, offset: 0xBB3B, size: 0x8, addend: 0x0, symName: __ZNKSt3__16vectorI8ObstacleNS_9allocatorIS1_EEE9__end_capB8ue170006Ev, symObjAddr: 0x2F90, symBinAddr: 0x100006020, symSize: 0x28 }
  - { offsetInCU: 0xBB5F, offset: 0xBB5F, size: 0x8, addend: 0x0, symName: __ZNKSt3__117__compressed_pairIP8ObstacleNS_9allocatorIS1_EEE5firstB8ue170006Ev, symObjAddr: 0x2FB8, symBinAddr: 0x100006048, symSize: 0x24 }
  - { offsetInCU: 0xBB83, offset: 0xBB83, size: 0x8, addend: 0x0, symName: __ZNKSt3__122__compressed_pair_elemIP8ObstacleLi0ELb0EE5__getB8ue170006Ev, symObjAddr: 0x2FDC, symBinAddr: 0x10000606C, symSize: 0x14 }
  - { offsetInCU: 0xBBA7, offset: 0xBBA7, size: 0x8, addend: 0x0, symName: __ZNSt3__16vectorI8ObstacleNS_9allocatorIS1_EEE9__end_capB8ue170006Ev, symObjAddr: 0x2FF0, symBinAddr: 0x100006080, symSize: 0x28 }
  - { offsetInCU: 0xBBD0, offset: 0xBBD0, size: 0x8, addend: 0x0, symName: __ZNSt3__16vectorI8ObstacleNS_9allocatorIS1_EEE22__construct_one_at_endB8ue170006IJS1_EEEvDpOT_, symObjAddr: 0x3018, symBinAddr: 0x1000060A8, symSize: 0x90 }
  - { offsetInCU: 0xBC1D, offset: 0xBC1D, size: 0x8, addend: 0x0, symName: __ZNSt3__16vectorI8ObstacleNS_9allocatorIS1_EEE21__push_back_slow_pathIS1_EEvOT_, symObjAddr: 0x30A8, symBinAddr: 0x100006138, symSize: 0xD8 }
  - { offsetInCU: 0xBC79, offset: 0xBC79, size: 0x8, addend: 0x0, symName: __ZNSt3__117__compressed_pairIP8ObstacleNS_9allocatorIS1_EEE5firstB8ue170006Ev, symObjAddr: 0x3180, symBinAddr: 0x100006210, symSize: 0x24 }
  - { offsetInCU: 0xBC9D, offset: 0xBC9D, size: 0x8, addend: 0x0, symName: __ZNSt3__122__compressed_pair_elemIP8ObstacleLi0ELb0EE5__getB8ue170006Ev, symObjAddr: 0x31A4, symBinAddr: 0x100006234, symSize: 0x14 }
  - { offsetInCU: 0xBCDA, offset: 0xBCDA, size: 0x8, addend: 0x0, symName: __ZNSt3__16vectorI8ObstacleNS_9allocatorIS1_EEE21_ConstructTransactionC1B8ue170006ERS4_m, symObjAddr: 0x31B8, symBinAddr: 0x100006248, symSize: 0x3C }
  - { offsetInCU: 0xBD21, offset: 0xBD21, size: 0x8, addend: 0x0, symName: __ZNSt3__116allocator_traitsINS_9allocatorI8ObstacleEEE9constructB8ue170006IS2_JS2_EvEEvRS3_PT_DpOT0_, symObjAddr: 0x31F4, symBinAddr: 0x100006284, symSize: 0x34 }
  - { offsetInCU: 0xBD76, offset: 0xBD76, size: 0x8, addend: 0x0, symName: __ZNSt3__16vectorI8ObstacleNS_9allocatorIS1_EEE21_ConstructTransactionD1B8ue170006Ev, symObjAddr: 0x3228, symBinAddr: 0x1000062B8, symSize: 0x2C }
  - { offsetInCU: 0xBD9F, offset: 0xBD9F, size: 0x8, addend: 0x0, symName: __ZNSt3__16vectorI8ObstacleNS_9allocatorIS1_EEE21_ConstructTransactionC2B8ue170006ERS4_m, symObjAddr: 0x3254, symBinAddr: 0x1000062E4, symSize: 0x4C }
  - { offsetInCU: 0xBDE4, offset: 0xBDE4, size: 0x8, addend: 0x0, symName: __ZNSt3__19allocatorI8ObstacleE9constructB8ue170006IS1_JS1_EEEvPT_DpOT0_, symObjAddr: 0x32A0, symBinAddr: 0x100006330, symSize: 0x34 }
  - { offsetInCU: 0xBE39, offset: 0xBE39, size: 0x8, addend: 0x0, symName: __ZNSt3__16vectorI8ObstacleNS_9allocatorIS1_EEE21_ConstructTransactionD2B8ue170006Ev, symObjAddr: 0x32D4, symBinAddr: 0x100006364, symSize: 0x20 }
  - { offsetInCU: 0xBE60, offset: 0xBE60, size: 0x8, addend: 0x0, symName: __ZNKSt3__16vectorI8ObstacleNS_9allocatorIS1_EEE11__recommendB8ue170006Em, symObjAddr: 0x32F4, symBinAddr: 0x100006384, symSize: 0xB4 }
  - { offsetInCU: 0xBEB4, offset: 0xBEB4, size: 0x8, addend: 0x0, symName: __ZNSt3__114__split_bufferI8ObstacleRNS_9allocatorIS1_EEEC1EmmS4_, symObjAddr: 0x33A8, symBinAddr: 0x100006438, symSize: 0x44 }
  - { offsetInCU: 0xBF09, offset: 0xBF09, size: 0x8, addend: 0x0, symName: __ZNSt3__114__split_bufferI8ObstacleRNS_9allocatorIS1_EEED1Ev, symObjAddr: 0x34FC, symBinAddr: 0x10000658C, symSize: 0x2C }
  - { offsetInCU: 0xBF33, offset: 0xBF33, size: 0x8, addend: 0x0, symName: __ZNKSt3__16vectorI8ObstacleNS_9allocatorIS1_EEE8max_sizeEv, symObjAddr: 0x3528, symBinAddr: 0x1000065B8, symSize: 0x60 }
  - { offsetInCU: 0xBF59, offset: 0xBF59, size: 0x8, addend: 0x0, symName: __ZNKSt3__16vectorI8ObstacleNS_9allocatorIS1_EEE20__throw_length_errorB8ue170006Ev, symObjAddr: 0x3588, symBinAddr: 0x100006618, symSize: 0x1C }
  - { offsetInCU: 0xBF88, offset: 0xBF88, size: 0x8, addend: 0x0, symName: __ZNSt3__116allocator_traitsINS_9allocatorI8ObstacleEEE8max_sizeB8ue170006IS3_vEEmRKS3_, symObjAddr: 0x35FC, symBinAddr: 0x10000668C, symSize: 0x24 }
  - { offsetInCU: 0xBFB4, offset: 0xBFB4, size: 0x8, addend: 0x0, symName: __ZNKSt3__16vectorI8ObstacleNS_9allocatorIS1_EEE7__allocB8ue170006Ev, symObjAddr: 0x3620, symBinAddr: 0x1000066B0, symSize: 0x28 }
  - { offsetInCU: 0xBFD9, offset: 0xBFD9, size: 0x8, addend: 0x0, symName: __ZNSt3__114numeric_limitsIlE3maxB8ue170006Ev, symObjAddr: 0x3648, symBinAddr: 0x1000066D8, symSize: 0x14 }
  - { offsetInCU: 0xC000, offset: 0xC000, size: 0x8, addend: 0x0, symName: __ZNKSt3__16__lessIvvEclB8ue170006ImmEEbRKT_RKT0_, symObjAddr: 0x36B0, symBinAddr: 0x100006740, symSize: 0x34 }
  - { offsetInCU: 0xC052, offset: 0xC052, size: 0x8, addend: 0x0, symName: __ZNKSt3__19allocatorI8ObstacleE8max_sizeB8ue170006Ev, symObjAddr: 0x36E4, symBinAddr: 0x100006774, symSize: 0x18 }
  - { offsetInCU: 0xC076, offset: 0xC076, size: 0x8, addend: 0x0, symName: __ZNKSt3__117__compressed_pairIP8ObstacleNS_9allocatorIS1_EEE6secondB8ue170006Ev, symObjAddr: 0x36FC, symBinAddr: 0x10000678C, symSize: 0x24 }
  - { offsetInCU: 0xC09A, offset: 0xC09A, size: 0x8, addend: 0x0, symName: __ZNKSt3__122__compressed_pair_elemINS_9allocatorI8ObstacleEELi1ELb1EE5__getB8ue170006Ev, symObjAddr: 0x3720, symBinAddr: 0x1000067B0, symSize: 0x14 }
  - { offsetInCU: 0xC0BF, offset: 0xC0BF, size: 0x8, addend: 0x0, symName: __ZNSt3__123__libcpp_numeric_limitsIlLb1EE3maxB8ue170006Ev, symObjAddr: 0x3734, symBinAddr: 0x1000067C4, symSize: 0x8 }
  - { offsetInCU: 0xC0D2, offset: 0xC0D2, size: 0x8, addend: 0x0, symName: __ZNSt12length_errorC1B8ue170006EPKc, symObjAddr: 0x37A0, symBinAddr: 0x100006830, symSize: 0x34 }
  - { offsetInCU: 0xC108, offset: 0xC108, size: 0x8, addend: 0x0, symName: __ZNSt12length_errorC2B8ue170006EPKc, symObjAddr: 0x37D4, symBinAddr: 0x100006864, symSize: 0x4C }
  - { offsetInCU: 0xC13F, offset: 0xC13F, size: 0x8, addend: 0x0, symName: __ZNSt3__114__split_bufferI8ObstacleRNS_9allocatorIS1_EEEC2EmmS4_, symObjAddr: 0x3874, symBinAddr: 0x100006904, symSize: 0xE0 }
  - { offsetInCU: 0xC1B0, offset: 0xC1B0, size: 0x8, addend: 0x0, symName: __ZNSt3__117__compressed_pairIP8ObstacleRNS_9allocatorIS1_EEEC1B8ue170006IDnS5_EEOT_OT0_, symObjAddr: 0x3954, symBinAddr: 0x1000069E4, symSize: 0x3C }
  - { offsetInCU: 0xC206, offset: 0xC206, size: 0x8, addend: 0x0, symName: __ZNSt3__114__split_bufferI8ObstacleRNS_9allocatorIS1_EEE7__allocB8ue170006Ev, symObjAddr: 0x39D0, symBinAddr: 0x100006A60, symSize: 0x28 }
  - { offsetInCU: 0xC22A, offset: 0xC22A, size: 0x8, addend: 0x0, symName: __ZNSt3__114__split_bufferI8ObstacleRNS_9allocatorIS1_EEE9__end_capB8ue170006Ev, symObjAddr: 0x39F8, symBinAddr: 0x100006A88, symSize: 0x28 }
  - { offsetInCU: 0xC24E, offset: 0xC24E, size: 0x8, addend: 0x0, symName: __ZNSt3__117__compressed_pairIP8ObstacleRNS_9allocatorIS1_EEEC2B8ue170006IDnS5_EEOT_OT0_, symObjAddr: 0x3A20, symBinAddr: 0x100006AB0, symSize: 0x48 }
  - { offsetInCU: 0xC2A5, offset: 0xC2A5, size: 0x8, addend: 0x0, symName: __ZNSt3__122__compressed_pair_elemIRNS_9allocatorI8ObstacleEELi1ELb0EEC2B8ue170006IS4_vEEOT_, symObjAddr: 0x3A68, symBinAddr: 0x100006AF8, symSize: 0x20 }
  - { offsetInCU: 0xC2E4, offset: 0xC2E4, size: 0x8, addend: 0x0, symName: __ZNSt3__19allocatorI8ObstacleE8allocateB8ue170006Em, symObjAddr: 0x3A88, symBinAddr: 0x100006B18, symSize: 0x5C }
  - { offsetInCU: 0xC316, offset: 0xC316, size: 0x8, addend: 0x0, symName: __ZNSt3__117__compressed_pairIP8ObstacleRNS_9allocatorIS1_EEE6secondB8ue170006Ev, symObjAddr: 0x3B64, symBinAddr: 0x100006BF4, symSize: 0x28 }
  - { offsetInCU: 0xC33A, offset: 0xC33A, size: 0x8, addend: 0x0, symName: __ZNSt3__122__compressed_pair_elemIRNS_9allocatorI8ObstacleEELi1ELb0EE5__getB8ue170006Ev, symObjAddr: 0x3B8C, symBinAddr: 0x100006C1C, symSize: 0x18 }
  - { offsetInCU: 0xC35E, offset: 0xC35E, size: 0x8, addend: 0x0, symName: __ZNSt3__117__compressed_pairIP8ObstacleRNS_9allocatorIS1_EEE5firstB8ue170006Ev, symObjAddr: 0x3BA4, symBinAddr: 0x100006C34, symSize: 0x24 }
  - { offsetInCU: 0xC382, offset: 0xC382, size: 0x8, addend: 0x0, symName: __ZNSt3__116reverse_iteratorIP8ObstacleEC1B8ue170006ES2_, symObjAddr: 0x3C40, symBinAddr: 0x100006CD0, symSize: 0x34 }
  - { offsetInCU: 0xC3B8, offset: 0xC3B8, size: 0x8, addend: 0x0, symName: __ZNKSt3__116reverse_iteratorIP8ObstacleE4baseB8ue170006Ev, symObjAddr: 0x3C74, symBinAddr: 0x100006D04, symSize: 0x18 }
  - { offsetInCU: 0xC3DC, offset: 0xC3DC, size: 0x8, addend: 0x0, symName: __ZNKSt3__16vectorI8ObstacleNS_9allocatorIS1_EEE14__annotate_newB8ue170006Em, symObjAddr: 0x3CC8, symBinAddr: 0x100006D58, symSize: 0xC8 }
  - { offsetInCU: 0xC432, offset: 0xC432, size: 0x8, addend: 0x0, symName: __ZNKSt3__111__move_loopINS_17_ClassicAlgPolicyEEclB8ue170006INS_16reverse_iteratorIP8ObstacleEES7_S7_EENS_4pairIT_T1_EES9_T0_SA_, symObjAddr: 0x4080, symBinAddr: 0x100007110, symSize: 0x9C }
  - { offsetInCU: 0xC49C, offset: 0xC49C, size: 0x8, addend: 0x0, symName: __ZNSt3__18_IterOpsINS_17_ClassicAlgPolicyEE11__iter_moveB8ue170006IRNS_16reverse_iteratorIP8ObstacleEEEENS_9enable_ifIXsr12is_referenceIDTdeclsr3stdE7declvalIRT_EEEEE5valueEDTclsr3stdE4movedeclsr3stdE7declvalISB_EEEEE4typeEOSA_, symObjAddr: 0x42B0, symBinAddr: 0x100007340, symSize: 0x28 }
  - { offsetInCU: 0xC4C6, offset: 0xC4C6, size: 0x8, addend: 0x0, symName: __ZNKSt3__116reverse_iteratorIP8ObstacleEdeB8ue170006Ev, symObjAddr: 0x42D8, symBinAddr: 0x100007368, symSize: 0x28 }
  - { offsetInCU: 0xC4F8, offset: 0xC4F8, size: 0x8, addend: 0x0, symName: __ZNSt3__116reverse_iteratorIP8ObstacleEppB8ue170006Ev, symObjAddr: 0x4300, symBinAddr: 0x100007390, symSize: 0x20 }
  - { offsetInCU: 0xC51D, offset: 0xC51D, size: 0x8, addend: 0x0, symName: __ZNSt3__18_IterOpsINS_17_ClassicAlgPolicyEE25__validate_iter_referenceB8ue170006IRNS_16reverse_iteratorIP8ObstacleEEEEvv, symObjAddr: 0x4320, symBinAddr: 0x1000073B0, symSize: 0x4 }
  - { offsetInCU: 0xC53B, offset: 0xC53B, size: 0x8, addend: 0x0, symName: __ZNSt3__118__unwrap_iter_implINS_16reverse_iteratorIP8ObstacleEELb0EE8__unwrapB8ue170006ES4_, symObjAddr: 0x4324, symBinAddr: 0x1000073B4, symSize: 0x24 }
  - { offsetInCU: 0xC562, offset: 0xC562, size: 0x8, addend: 0x0, symName: __ZNSt3__14pairINS_16reverse_iteratorIP8ObstacleEES4_EC1B8ue170006IS4_S4_LPv0EEEOT_OT0_, symObjAddr: 0x4348, symBinAddr: 0x1000073D8, symSize: 0x3C }
  - { offsetInCU: 0xC5BF, offset: 0xC5BF, size: 0x8, addend: 0x0, symName: __ZNSt3__14pairINS_16reverse_iteratorIP8ObstacleEES4_EC2B8ue170006IS4_S4_LPv0EEEOT_OT0_, symObjAddr: 0x4384, symBinAddr: 0x100007414, symSize: 0x34 }
  - { offsetInCU: 0xC61B, offset: 0xC61B, size: 0x8, addend: 0x0, symName: __ZNSt3__118__unwrap_iter_implINS_16reverse_iteratorIP8ObstacleEELb0EE8__rewrapB8ue170006ES4_S4_, symObjAddr: 0x43B8, symBinAddr: 0x100007448, symSize: 0x2C }
  - { offsetInCU: 0xC648, offset: 0xC648, size: 0x8, addend: 0x0, symName: __ZNSt3__116reverse_iteratorIP8ObstacleEC2B8ue170006ES2_, symObjAddr: 0x43E4, symBinAddr: 0x100007474, symSize: 0x28 }
  - { offsetInCU: 0xC67E, offset: 0xC67E, size: 0x8, addend: 0x0, symName: __ZNSt3__114__split_bufferI8ObstacleRNS_9allocatorIS1_EEED2Ev, symObjAddr: 0x440C, symBinAddr: 0x10000749C, symSize: 0x8C }
  - { offsetInCU: 0xC6A8, offset: 0xC6A8, size: 0x8, addend: 0x0, symName: __ZNSt3__114__split_bufferI8ObstacleRNS_9allocatorIS1_EEE5clearB8ue170006Ev, symObjAddr: 0x4498, symBinAddr: 0x100007528, symSize: 0x28 }
  - { offsetInCU: 0xC6CC, offset: 0xC6CC, size: 0x8, addend: 0x0, symName: __ZNKSt3__114__split_bufferI8ObstacleRNS_9allocatorIS1_EEE8capacityB8ue170006Ev, symObjAddr: 0x44C0, symBinAddr: 0x100007550, symSize: 0x40 }
  - { offsetInCU: 0xC6F0, offset: 0xC6F0, size: 0x8, addend: 0x0, symName: __ZNSt3__114__split_bufferI8ObstacleRNS_9allocatorIS1_EEE17__destruct_at_endB8ue170006EPS1_, symObjAddr: 0x4500, symBinAddr: 0x100007590, symSize: 0x2C }
  - { offsetInCU: 0xC722, offset: 0xC722, size: 0x8, addend: 0x0, symName: __ZNSt3__114__split_bufferI8ObstacleRNS_9allocatorIS1_EEE17__destruct_at_endB8ue170006EPS1_NS_17integral_constantIbLb0EEE, symObjAddr: 0x452C, symBinAddr: 0x1000075BC, symSize: 0x80 }
  - { offsetInCU: 0xC760, offset: 0xC760, size: 0x8, addend: 0x0, symName: __ZNKSt3__114__split_bufferI8ObstacleRNS_9allocatorIS1_EEE9__end_capB8ue170006Ev, symObjAddr: 0x45AC, symBinAddr: 0x10000763C, symSize: 0x28 }
  - { offsetInCU: 0xC784, offset: 0xC784, size: 0x8, addend: 0x0, symName: __ZNKSt3__117__compressed_pairIP8ObstacleRNS_9allocatorIS1_EEE5firstB8ue170006Ev, symObjAddr: 0x45D4, symBinAddr: 0x100007664, symSize: 0x24 }
  - { offsetInCU: 0xC7A8, offset: 0xC7A8, size: 0x8, addend: 0x0, symName: __ZNSt3__16vectorI8ObstacleNS_9allocatorIS1_EEE11__make_iterB8ue170006EPS1_, symObjAddr: 0x45F8, symBinAddr: 0x100007688, symSize: 0x30 }
  - { offsetInCU: 0xC7DB, offset: 0xC7DB, size: 0x8, addend: 0x0, symName: __ZNSt3__111__wrap_iterIP8ObstacleEC1B8ue170006ES2_, symObjAddr: 0x4628, symBinAddr: 0x1000076B8, symSize: 0x34 }
  - { offsetInCU: 0xC812, offset: 0xC812, size: 0x8, addend: 0x0, symName: __ZNSt3__111__wrap_iterIP8ObstacleEC2B8ue170006ES2_, symObjAddr: 0x465C, symBinAddr: 0x1000076EC, symSize: 0x20 }
  - { offsetInCU: 0xC847, offset: 0xC847, size: 0x8, addend: 0x0, symName: __ZNSt3__111__wrap_iterIP8ObstacleEpLB8ue170006El, symObjAddr: 0x467C, symBinAddr: 0x10000770C, symSize: 0x30 }
  - { offsetInCU: 0xC879, offset: 0xC879, size: 0x8, addend: 0x0, symName: __ZNKSt3__16vectorI8ObstacleNS_9allocatorIS1_EEE6cbeginB8ue170006Ev, symObjAddr: 0x46F4, symBinAddr: 0x100007784, symSize: 0x2C }
  - { offsetInCU: 0xC89D, offset: 0xC89D, size: 0x8, addend: 0x0, symName: __ZNSt3__16vectorI8ObstacleNS_9allocatorIS1_EEE17__destruct_at_endB8ue170006EPS1_, symObjAddr: 0x4720, symBinAddr: 0x1000077B0, symSize: 0x4C }
  - { offsetInCU: 0xC8DF, offset: 0xC8DF, size: 0x8, addend: 0x0, symName: __ZNKSt3__111__wrap_iterIPK8ObstacleE4baseB8ue170006Ev, symObjAddr: 0x47AC, symBinAddr: 0x10000783C, symSize: 0x18 }
  - { offsetInCU: 0xC903, offset: 0xC903, size: 0x8, addend: 0x0, symName: __ZNKSt3__16vectorI8ObstacleNS_9allocatorIS1_EEE5beginB8ue170006Ev, symObjAddr: 0x47C4, symBinAddr: 0x100007854, symSize: 0x30 }
  - { offsetInCU: 0xC929, offset: 0xC929, size: 0x8, addend: 0x0, symName: __ZNKSt3__16vectorI8ObstacleNS_9allocatorIS1_EEE11__make_iterB8ue170006EPKS1_, symObjAddr: 0x47F4, symBinAddr: 0x100007884, symSize: 0x30 }
  - { offsetInCU: 0xC95C, offset: 0xC95C, size: 0x8, addend: 0x0, symName: __ZNSt3__111__wrap_iterIPK8ObstacleEC1B8ue170006ES3_, symObjAddr: 0x4824, symBinAddr: 0x1000078B4, symSize: 0x34 }
  - { offsetInCU: 0xC993, offset: 0xC993, size: 0x8, addend: 0x0, symName: __ZNSt3__111__wrap_iterIPK8ObstacleEC2B8ue170006ES3_, symObjAddr: 0x4858, symBinAddr: 0x1000078E8, symSize: 0x20 }
  - { offsetInCU: 0xC9C8, offset: 0xC9C8, size: 0x8, addend: 0x0, symName: __ZNKSt3__16vectorI8ObstacleNS_9allocatorIS1_EEE17__annotate_shrinkB8ue170006Em, symObjAddr: 0x4878, symBinAddr: 0x100007908, symSize: 0xD0 }
  - { offsetInCU: 0xCA1E, offset: 0xCA1E, size: 0x8, addend: 0x0, symName: __ZNKSt3__114__move_trivialclB8ue170006I8ObstacleS2_Li0EEENS_4pairIPT_PT0_EES5_S5_S7_, symObjAddr: 0x4AE4, symBinAddr: 0x100007B74, symSize: 0x48 }
  - { offsetInCU: 0xCA89, offset: 0xCA89, size: 0x8, addend: 0x0, symName: __ZNSt3__14pairIP8ObstacleS2_EC1B8ue170006IRS2_S2_LPv0EEEOT_OT0_, symObjAddr: 0x4D18, symBinAddr: 0x100007DA8, symSize: 0x3C }
  - { offsetInCU: 0xCAE6, offset: 0xCAE6, size: 0x8, addend: 0x0, symName: __ZNSt3__14pairIP8ObstacleS2_EC2B8ue170006IRS2_S2_LPv0EEEOT_OT0_, symObjAddr: 0x4D54, symBinAddr: 0x100007DE4, symSize: 0x34 }
  - { offsetInCU: 0xCB42, offset: 0xCB42, size: 0x8, addend: 0x0, symName: __ZNSt3__118__unwrap_iter_implIP8ObstacleLb1EE8__unwrapB8ue170006ES2_, symObjAddr: 0x4D88, symBinAddr: 0x100007E18, symSize: 0x24 }
  - { offsetInCU: 0xCB63, offset: 0xCB63, size: 0x8, addend: 0x0, symName: __ZNSt3__14pairIP8ObstacleS2_EC1B8ue170006IS2_S2_LPv0EEEOT_OT0_, symObjAddr: 0x4DAC, symBinAddr: 0x100007E3C, symSize: 0x3C }
  - { offsetInCU: 0xCBC0, offset: 0xCBC0, size: 0x8, addend: 0x0, symName: __ZNSt3__14pairIP8ObstacleS2_EC2B8ue170006IS2_S2_LPv0EEEOT_OT0_, symObjAddr: 0x4DE8, symBinAddr: 0x100007E78, symSize: 0x34 }
  - { offsetInCU: 0xCC1C, offset: 0xCC1C, size: 0x8, addend: 0x0, symName: __ZNSt3__118__unwrap_iter_implIP8ObstacleLb1EE8__rewrapB8ue170006ES2_S2_, symObjAddr: 0x4E1C, symBinAddr: 0x100007EAC, symSize: 0x58 }
  - { offsetInCU: 0xCC4B, offset: 0xCC4B, size: 0x8, addend: 0x0, symName: __ZNSt3__111__wrap_iterIPK8ObstacleEC2B8ue170006IPS1_EERKNS0_IT_EEPNS_9enable_ifIXsr14is_convertibleIS7_S3_EE5valueEvE4typeE, symObjAddr: 0x4E74, symBinAddr: 0x100007F04, symSize: 0x40 }
  - { offsetInCU: 0xCC94, offset: 0xCC94, size: 0x8, addend: 0x0, symName: __ZNKSt3__111__wrap_iterIP8ObstacleE4baseB8ue170006Ev, symObjAddr: 0x4EB4, symBinAddr: 0x100007F44, symSize: 0x18 }
  - { offsetInCU: 0x2A9D, offset: 0xF82C, size: 0x8, addend: 0x0, symName: __ZNSt3__124__put_character_sequenceB8ue170006IcNS_11char_traitsIcEEEERNS_13basic_ostreamIT_T0_EES7_PKS4_m, symObjAddr: 0xFA0, symBinAddr: 0x100008D14, symSize: 0x1EC }
  - { offsetInCU: 0x49A6, offset: 0x11735, size: 0x8, addend: 0x0, symName: __ZNSt3__1lsB8ue170006INS_11char_traitsIcEEEERNS_13basic_ostreamIcT_EES6_PKc, symObjAddr: 0x830, symBinAddr: 0x10000878C, symSize: 0x48 }
  - { offsetInCU: 0x4A10, offset: 0x1179F, size: 0x8, addend: 0x0, symName: __ZNSt3__118generate_canonicalB8ue170006IdLm53ENS_23mersenne_twister_engineIjLm32ELm624ELm397ELm31ELj2567483615ELm11ELj4294967295ELm7ELj2636928640ELm15ELj4022730752ELm18ELj1812433253EEEEET_RT1_, symObjAddr: 0xCB0, symBinAddr: 0x100008A24, symSize: 0x114 }
  - { offsetInCU: 0x4AD6, offset: 0x11865, size: 0x8, addend: 0x0, symName: __ZNSt3__116__pad_and_outputB8ue170006IcNS_11char_traitsIcEEEENS_19ostreambuf_iteratorIT_T0_EES6_PKS4_S8_S8_RNS_8ios_baseES4_, symObjAddr: 0x11A8, symBinAddr: 0x100008F1C, symSize: 0x240 }
  - { offsetInCU: 0x4BA5, offset: 0x11934, size: 0x8, addend: 0x0, symName: __ZNSt3__112__to_addressB8ue170006IKcEEPT_S3_, symObjAddr: 0x1618, symBinAddr: 0x10000938C, symSize: 0x14 }
  - { offsetInCU: 0x4C0D, offset: 0x1199C, size: 0x8, addend: 0x0, symName: __ZNSt3__19use_facetB8ue170006INS_5ctypeIcEEEERKT_RKNS_6localeE, symObjAddr: 0x1898, symBinAddr: 0x10000959C, symSize: 0x2C }
  - { offsetInCU: 0x714C, offset: 0x13EDB, size: 0x8, addend: 0x0, symName: __Z15genRandomNumberdd, symObjAddr: 0x0, symBinAddr: 0x100007F5C, symSize: 0xA8 }
  - { offsetInCU: 0x71CA, offset: 0x13F59, size: 0x8, addend: 0x0, symName: __ZNSt3__113random_deviceC1B8ue170006Ev, symObjAddr: 0xA8, symBinAddr: 0x100008004, symSize: 0x74 }
  - { offsetInCU: 0x71F2, offset: 0x13F81, size: 0x8, addend: 0x0, symName: __ZNSt3__123mersenne_twister_engineIjLm32ELm624ELm397ELm31ELj2567483615ELm11ELj4294967295ELm7ELj2636928640ELm15ELj4022730752ELm18ELj1812433253EEC1B8ue170006Ej, symObjAddr: 0x11C, symBinAddr: 0x100008078, symSize: 0x34 }
  - { offsetInCU: 0x724B, offset: 0x13FDA, size: 0x8, addend: 0x0, symName: __ZNSt3__125uniform_real_distributionIdEC1B8ue170006Edd, symObjAddr: 0x150, symBinAddr: 0x1000080AC, symSize: 0x3C }
  - { offsetInCU: 0x7294, offset: 0x14023, size: 0x8, addend: 0x0, symName: __ZNSt3__125uniform_real_distributionIdEclB8ue170006INS_23mersenne_twister_engineIjLm32ELm624ELm397ELm31ELj2567483615ELm11ELj4294967295ELm7ELj2636928640ELm15ELj4022730752ELm18ELj1812433253EEEEEdRT_, symObjAddr: 0x18C, symBinAddr: 0x1000080E8, symSize: 0x30 }
  - { offsetInCU: 0x72D9, offset: 0x14068, size: 0x8, addend: 0x0, symName: __ZN6MatrixC2Ev, symObjAddr: 0x1BC, symBinAddr: 0x100008118, symSize: 0x7C }
  - { offsetInCU: 0x7303, offset: 0x14092, size: 0x8, addend: 0x0, symName: __ZN6MatrixC1Ev, symObjAddr: 0x238, symBinAddr: 0x100008194, symSize: 0x2C }
  - { offsetInCU: 0x732D, offset: 0x140BC, size: 0x8, addend: 0x0, symName: __ZN6MatrixC2Ei, symObjAddr: 0x264, symBinAddr: 0x1000081C0, symSize: 0xCC }
  - { offsetInCU: 0x7381, offset: 0x14110, size: 0x8, addend: 0x0, symName: __ZN6MatrixC1Ei, symObjAddr: 0x330, symBinAddr: 0x10000828C, symSize: 0x34 }
  - { offsetInCU: 0x73B9, offset: 0x14148, size: 0x8, addend: 0x0, symName: __ZN6MatrixC2ERKS_, symObjAddr: 0x364, symBinAddr: 0x1000082C0, symSize: 0x118 }
  - { offsetInCU: 0x740D, offset: 0x1419C, size: 0x8, addend: 0x0, symName: __ZN6MatrixC1ERKS_, symObjAddr: 0x47C, symBinAddr: 0x1000083D8, symSize: 0x34 }
  - { offsetInCU: 0x7445, offset: 0x141D4, size: 0x8, addend: 0x0, symName: __ZN6MatrixD2Ev, symObjAddr: 0x4B0, symBinAddr: 0x10000840C, symSize: 0x50 }
  - { offsetInCU: 0x746F, offset: 0x141FE, size: 0x8, addend: 0x0, symName: __ZN6MatrixD1Ev, symObjAddr: 0x500, symBinAddr: 0x10000845C, symSize: 0x2C }
  - { offsetInCU: 0x7499, offset: 0x14228, size: 0x8, addend: 0x0, symName: __ZN6MatrixaSERKS_, symObjAddr: 0x52C, symBinAddr: 0x100008488, symSize: 0x120 }
  - { offsetInCU: 0x74E9, offset: 0x14278, size: 0x8, addend: 0x0, symName: __ZN6Matrix3getEi, symObjAddr: 0x64C, symBinAddr: 0x1000085A8, symSize: 0x24 }
  - { offsetInCU: 0x751E, offset: 0x142AD, size: 0x8, addend: 0x0, symName: __ZN6Matrix3setEid, symObjAddr: 0x670, symBinAddr: 0x1000085CC, symSize: 0x2C }
  - { offsetInCU: 0x7561, offset: 0x142F0, size: 0x8, addend: 0x0, symName: __ZN6Matrix8multiplyES_, symObjAddr: 0x69C, symBinAddr: 0x1000085F8, symSize: 0x90 }
  - { offsetInCU: 0x75C1, offset: 0x14350, size: 0x8, addend: 0x0, symName: __ZN6Matrix3setES_, symObjAddr: 0x72C, symBinAddr: 0x100008688, symSize: 0x84 }
  - { offsetInCU: 0x7613, offset: 0x143A2, size: 0x8, addend: 0x0, symName: __ZlsRNSt3__113basic_ostreamIcNS_11char_traitsIcEEEERK6Matrix, symObjAddr: 0x7B0, symBinAddr: 0x10000870C, symSize: 0x80 }
  - { offsetInCU: 0x766E, offset: 0x143FD, size: 0x8, addend: 0x0, symName: __ZNSt3__123mersenne_twister_engineIjLm32ELm624ELm397ELm31ELj2567483615ELm11ELj4294967295ELm7ELj2636928640ELm15ELj4022730752ELm18ELj1812433253EEC2B8ue170006Ej, symObjAddr: 0xA60, symBinAddr: 0x1000087D4, symSize: 0x34 }
  - { offsetInCU: 0x76A4, offset: 0x14433, size: 0x8, addend: 0x0, symName: __ZNSt3__123mersenne_twister_engineIjLm32ELm624ELm397ELm31ELj2567483615ELm11ELj4294967295ELm7ELj2636928640ELm15ELj4022730752ELm18ELj1812433253EE4seedEj, symObjAddr: 0xA94, symBinAddr: 0x100008808, symSize: 0xC4 }
  - { offsetInCU: 0x76F6, offset: 0x14485, size: 0x8, addend: 0x0, symName: __ZNSt3__123mersenne_twister_engineIjLm32ELm624ELm397ELm31ELj2567483615ELm11ELj4294967295ELm7ELj2636928640ELm15ELj4022730752ELm18ELj1812433253EE8__rshiftB8ue170006ILm30EEENS_9enable_ifIXltT_L_ZNS1_3_DtEEEjE4typeEj, symObjAddr: 0xB58, symBinAddr: 0x1000088CC, symSize: 0x18 }
  - { offsetInCU: 0x7722, offset: 0x144B1, size: 0x8, addend: 0x0, symName: __ZNSt3__125uniform_real_distributionIdEC2B8ue170006Edd, symObjAddr: 0xB70, symBinAddr: 0x1000088E4, symSize: 0x3C }
  - { offsetInCU: 0x7766, offset: 0x144F5, size: 0x8, addend: 0x0, symName: __ZNSt3__125uniform_real_distributionIdE10param_typeC1B8ue170006Edd, symObjAddr: 0xBAC, symBinAddr: 0x100008920, symSize: 0x3C }
  - { offsetInCU: 0x77AA, offset: 0x14539, size: 0x8, addend: 0x0, symName: __ZNSt3__125uniform_real_distributionIdE10param_typeC2B8ue170006Edd, symObjAddr: 0xBE8, symBinAddr: 0x10000895C, symSize: 0x2C }
  - { offsetInCU: 0x77EF, offset: 0x1457E, size: 0x8, addend: 0x0, symName: __ZNSt3__125uniform_real_distributionIdEclINS_23mersenne_twister_engineIjLm32ELm624ELm397ELm31ELj2567483615ELm11ELj4294967295ELm7ELj2636928640ELm15ELj4022730752ELm18ELj1812433253EEEEEdRT_RKNS1_10param_typeE, symObjAddr: 0xC14, symBinAddr: 0x100008988, symSize: 0x6C }
  - { offsetInCU: 0x783A, offset: 0x145C9, size: 0x8, addend: 0x0, symName: __ZNKSt3__125uniform_real_distributionIdE10param_type1bB8ue170006Ev, symObjAddr: 0xC80, symBinAddr: 0x1000089F4, symSize: 0x18 }
  - { offsetInCU: 0x785E, offset: 0x145ED, size: 0x8, addend: 0x0, symName: __ZNKSt3__125uniform_real_distributionIdE10param_type1aB8ue170006Ev, symObjAddr: 0xC98, symBinAddr: 0x100008A0C, symSize: 0x18 }
  - { offsetInCU: 0x7882, offset: 0x14611, size: 0x8, addend: 0x0, symName: __ZNSt3__123mersenne_twister_engineIjLm32ELm624ELm397ELm31ELj2567483615ELm11ELj4294967295ELm7ELj2636928640ELm15ELj4022730752ELm18ELj1812433253EE3maxB8ue170006Ev, symObjAddr: 0xDC4, symBinAddr: 0x100008B38, symSize: 0x8 }
  - { offsetInCU: 0x7896, offset: 0x14625, size: 0x8, addend: 0x0, symName: __ZNSt3__123mersenne_twister_engineIjLm32ELm624ELm397ELm31ELj2567483615ELm11ELj4294967295ELm7ELj2636928640ELm15ELj4022730752ELm18ELj1812433253EE3minB8ue170006Ev, symObjAddr: 0xDCC, symBinAddr: 0x100008B40, symSize: 0x8 }
  - { offsetInCU: 0x78A9, offset: 0x14638, size: 0x8, addend: 0x0, symName: __ZNSt3__123mersenne_twister_engineIjLm32ELm624ELm397ELm31ELj2567483615ELm11ELj4294967295ELm7ELj2636928640ELm15ELj4022730752ELm18ELj1812433253EEclEv, symObjAddr: 0xDD4, symBinAddr: 0x100008B48, symSize: 0x14C }
  - { offsetInCU: 0x791B, offset: 0x146AA, size: 0x8, addend: 0x0, symName: __ZNSt3__123mersenne_twister_engineIjLm32ELm624ELm397ELm31ELj2567483615ELm11ELj4294967295ELm7ELj2636928640ELm15ELj4022730752ELm18ELj1812433253EE8__rshiftB8ue170006ILm1EEENS_9enable_ifIXltT_L_ZNS1_3_DtEEEjE4typeEj, symObjAddr: 0xF20, symBinAddr: 0x100008C94, symSize: 0x18 }
  - { offsetInCU: 0x7948, offset: 0x146D7, size: 0x8, addend: 0x0, symName: __ZNSt3__123mersenne_twister_engineIjLm32ELm624ELm397ELm31ELj2567483615ELm11ELj4294967295ELm7ELj2636928640ELm15ELj4022730752ELm18ELj1812433253EE8__rshiftB8ue170006ILm11EEENS_9enable_ifIXltT_L_ZNS1_3_DtEEEjE4typeEj, symObjAddr: 0xF38, symBinAddr: 0x100008CAC, symSize: 0x18 }
  - { offsetInCU: 0x7975, offset: 0x14704, size: 0x8, addend: 0x0, symName: __ZNSt3__123mersenne_twister_engineIjLm32ELm624ELm397ELm31ELj2567483615ELm11ELj4294967295ELm7ELj2636928640ELm15ELj4022730752ELm18ELj1812433253EE8__lshiftB8ue170006ILm7EEENS_9enable_ifIXltT_Lm32EEjE4typeEj, symObjAddr: 0xF50, symBinAddr: 0x100008CC4, symSize: 0x1C }
  - { offsetInCU: 0x79A2, offset: 0x14731, size: 0x8, addend: 0x0, symName: __ZNSt3__123mersenne_twister_engineIjLm32ELm624ELm397ELm31ELj2567483615ELm11ELj4294967295ELm7ELj2636928640ELm15ELj4022730752ELm18ELj1812433253EE8__lshiftB8ue170006ILm15EEENS_9enable_ifIXltT_Lm32EEjE4typeEj, symObjAddr: 0xF6C, symBinAddr: 0x100008CE0, symSize: 0x1C }
  - { offsetInCU: 0x79CF, offset: 0x1475E, size: 0x8, addend: 0x0, symName: __ZNSt3__123mersenne_twister_engineIjLm32ELm624ELm397ELm31ELj2567483615ELm11ELj4294967295ELm7ELj2636928640ELm15ELj4022730752ELm18ELj1812433253EE8__rshiftB8ue170006ILm18EEENS_9enable_ifIXltT_L_ZNS1_3_DtEEEjE4typeEj, symObjAddr: 0xF88, symBinAddr: 0x100008CFC, symSize: 0x18 }
  - { offsetInCU: 0x7A1A, offset: 0x147A9, size: 0x8, addend: 0x0, symName: __ZNKSt3__113basic_ostreamIcNS_11char_traitsIcEEE6sentrycvbB8ue170006Ev, symObjAddr: 0x118C, symBinAddr: 0x100008F00, symSize: 0x1C }
  - { offsetInCU: 0x7A3D, offset: 0x147CC, size: 0x8, addend: 0x0, symName: __ZNSt3__119ostreambuf_iteratorIcNS_11char_traitsIcEEEC1B8ue170006ERNS_13basic_ostreamIcS2_EE, symObjAddr: 0x13E8, symBinAddr: 0x10000915C, symSize: 0x34 }
  - { offsetInCU: 0x7A74, offset: 0x14803, size: 0x8, addend: 0x0, symName: __ZNKSt3__18ios_base5flagsB8ue170006Ev, symObjAddr: 0x141C, symBinAddr: 0x100009190, symSize: 0x18 }
  - { offsetInCU: 0x7A99, offset: 0x14828, size: 0x8, addend: 0x0, symName: __ZNKSt3__19basic_iosIcNS_11char_traitsIcEEE4fillB8ue170006Ev, symObjAddr: 0x1434, symBinAddr: 0x1000091A8, symSize: 0x64 }
  - { offsetInCU: 0x7AC0, offset: 0x1484F, size: 0x8, addend: 0x0, symName: __ZNKSt3__119ostreambuf_iteratorIcNS_11char_traitsIcEEE6failedB8ue170006Ev, symObjAddr: 0x1498, symBinAddr: 0x10000920C, symSize: 0x24 }
  - { offsetInCU: 0x7AE3, offset: 0x14872, size: 0x8, addend: 0x0, symName: __ZNSt3__19basic_iosIcNS_11char_traitsIcEEE8setstateB8ue170006Ej, symObjAddr: 0x14BC, symBinAddr: 0x100009230, symSize: 0x2C }
  - { offsetInCU: 0x7B17, offset: 0x148A6, size: 0x8, addend: 0x0, symName: __ZNKSt3__18ios_base5widthB8ue170006Ev, symObjAddr: 0x14E8, symBinAddr: 0x10000925C, symSize: 0x18 }
  - { offsetInCU: 0x7B3C, offset: 0x148CB, size: 0x8, addend: 0x0, symName: __ZNSt3__115basic_streambufIcNS_11char_traitsIcEEE5sputnB8ue170006EPKcl, symObjAddr: 0x1500, symBinAddr: 0x100009274, symSize: 0x3C }
  - { offsetInCU: 0x7B7C, offset: 0x1490B, size: 0x8, addend: 0x0, symName: __ZNSt3__112basic_stringIcNS_11char_traitsIcEENS_9allocatorIcEEEC1B8ue170006Emc, symObjAddr: 0x153C, symBinAddr: 0x1000092B0, symSize: 0x3C }
  - { offsetInCU: 0x7BC2, offset: 0x14951, size: 0x8, addend: 0x0, symName: __ZNKSt3__112basic_stringIcNS_11char_traitsIcEENS_9allocatorIcEEE4dataB8ue170006Ev, symObjAddr: 0x1578, symBinAddr: 0x1000092EC, symSize: 0x28 }
  - { offsetInCU: 0x7BE7, offset: 0x14976, size: 0x8, addend: 0x0, symName: __ZNSt3__18ios_base5widthB8ue170006El, symObjAddr: 0x15A0, symBinAddr: 0x100009314, symSize: 0x2C }
  - { offsetInCU: 0x7C2A, offset: 0x149B9, size: 0x8, addend: 0x0, symName: __ZNSt3__112basic_stringIcNS_11char_traitsIcEENS_9allocatorIcEEEC2B8ue170006Emc, symObjAddr: 0x15CC, symBinAddr: 0x100009340, symSize: 0x4C }
  - { offsetInCU: 0x7C70, offset: 0x149FF, size: 0x8, addend: 0x0, symName: __ZNKSt3__112basic_stringIcNS_11char_traitsIcEENS_9allocatorIcEEE13__get_pointerB8ue170006Ev, symObjAddr: 0x162C, symBinAddr: 0x1000093A0, symSize: 0x54 }
  - { offsetInCU: 0x7C94, offset: 0x14A23, size: 0x8, addend: 0x0, symName: __ZNKSt3__112basic_stringIcNS_11char_traitsIcEENS_9allocatorIcEEE18__get_long_pointerB8ue170006Ev, symObjAddr: 0x16B8, symBinAddr: 0x1000093F4, symSize: 0x28 }
  - { offsetInCU: 0x7CB8, offset: 0x14A47, size: 0x8, addend: 0x0, symName: __ZNKSt3__112basic_stringIcNS_11char_traitsIcEENS_9allocatorIcEEE19__get_short_pointerB8ue170006Ev, symObjAddr: 0x16E0, symBinAddr: 0x10000941C, symSize: 0x28 }
  - { offsetInCU: 0x7CDD, offset: 0x14A6C, size: 0x8, addend: 0x0, symName: __ZNSt3__114pointer_traitsIPKcE10pointer_toB8ue170006ERS1_, symObjAddr: 0x1740, symBinAddr: 0x100009444, symSize: 0x14 }
  - { offsetInCU: 0x7CFF, offset: 0x14A8E, size: 0x8, addend: 0x0, symName: __ZNSt3__119ostreambuf_iteratorIcNS_11char_traitsIcEEEC2B8ue170006ERNS_13basic_ostreamIcS2_EE, symObjAddr: 0x1754, symBinAddr: 0x100009458, symSize: 0x54 }
  - { offsetInCU: 0x7D35, offset: 0x14AC4, size: 0x8, addend: 0x0, symName: __ZNKSt3__19basic_iosIcNS_11char_traitsIcEEE5rdbufB8ue170006Ev, symObjAddr: 0x17A8, symBinAddr: 0x1000094AC, symSize: 0x24 }
  - { offsetInCU: 0x7D5C, offset: 0x14AEB, size: 0x8, addend: 0x0, symName: __ZNKSt3__18ios_base5rdbufB8ue170006Ev, symObjAddr: 0x17CC, symBinAddr: 0x1000094D0, symSize: 0x18 }
  - { offsetInCU: 0x7D80, offset: 0x14B0F, size: 0x8, addend: 0x0, symName: __ZNSt3__111char_traitsIcE11eq_int_typeB8ue170006Eii, symObjAddr: 0x17E4, symBinAddr: 0x1000094E8, symSize: 0x28 }
  - { offsetInCU: 0x7DB3, offset: 0x14B42, size: 0x8, addend: 0x0, symName: __ZNSt3__111char_traitsIcE3eofB8ue170006Ev, symObjAddr: 0x180C, symBinAddr: 0x100009510, symSize: 0x8 }
  - { offsetInCU: 0x7DC6, offset: 0x14B55, size: 0x8, addend: 0x0, symName: __ZNKSt3__19basic_iosIcNS_11char_traitsIcEEE5widenB8ue170006Ec, symObjAddr: 0x1814, symBinAddr: 0x100009518, symSize: 0x84 }
  - { offsetInCU: 0x7E2D, offset: 0x14BBC, size: 0x8, addend: 0x0, symName: __ZNKSt3__15ctypeIcE5widenB8ue170006Ec, symObjAddr: 0x18C4, symBinAddr: 0x1000095C8, symSize: 0x38 }
  - { offsetInCU: 0x7E60, offset: 0x14BEF, size: 0x8, addend: 0x0, symName: __ZNSt3__18ios_base8setstateB8ue170006Ej, symObjAddr: 0x18FC, symBinAddr: 0x100009600, symSize: 0x34 }
  - { offsetInCU: 0x26, offset: 0x14CA9, size: 0x8, addend: 0x0, symName: __ZN5ModelC2Ev, symObjAddr: 0x0, symBinAddr: 0x100009634, symSize: 0xA0 }
  - { offsetInCU: 0x2902, offset: 0x17585, size: 0x8, addend: 0x0, symName: __ZN5ModelC2Ev, symObjAddr: 0x0, symBinAddr: 0x100009634, symSize: 0xA0 }
  - { offsetInCU: 0x292C, offset: 0x175AF, size: 0x8, addend: 0x0, symName: __ZN5ModelC1Ev, symObjAddr: 0xA0, symBinAddr: 0x1000096D4, symSize: 0x2C }
  - { offsetInCU: 0x2956, offset: 0x175D9, size: 0x8, addend: 0x0, symName: __ZN5ModelC2Ei, symObjAddr: 0xCC, symBinAddr: 0x100009700, symSize: 0xA8 }
  - { offsetInCU: 0x298E, offset: 0x17611, size: 0x8, addend: 0x0, symName: __ZN5ModelC1Ei, symObjAddr: 0x174, symBinAddr: 0x1000097A8, symSize: 0x34 }
  - { offsetInCU: 0x29C6, offset: 0x17649, size: 0x8, addend: 0x0, symName: __ZN5Model9setParamsE6Matrix, symObjAddr: 0x1A8, symBinAddr: 0x1000097DC, symSize: 0x70 }
  - { offsetInCU: 0x29FB, offset: 0x1767E, size: 0x8, addend: 0x0, symName: __ZN5Model9getParamsEv, symObjAddr: 0x218, symBinAddr: 0x10000984C, symSize: 0x38 }
  - { offsetInCU: 0x2A21, offset: 0x176A4, size: 0x8, addend: 0x0, symName: __ZN5Model10setFitnessEd, symObjAddr: 0x250, symBinAddr: 0x100009884, symSize: 0x20 }
  - { offsetInCU: 0x2A56, offset: 0x176D9, size: 0x8, addend: 0x0, symName: __ZN5Model11calcFitnessEP6MatrixPdi, symObjAddr: 0x270, symBinAddr: 0x1000098A4, symSize: 0x10C }
  - { offsetInCU: 0x2AC8, offset: 0x1774B, size: 0x8, addend: 0x0, symName: __ZN5Model10getFitnessEv, symObjAddr: 0x394, symBinAddr: 0x1000099B0, symSize: 0x18 }
  - { offsetInCU: 0x2AEF, offset: 0x17772, size: 0x8, addend: 0x0, symName: __ZN5Model7getDimsEv, symObjAddr: 0x3AC, symBinAddr: 0x1000099C8, symSize: 0x18 }
  - { offsetInCU: 0x1226, offset: 0x189C4, size: 0x8, addend: 0x0, symName: __ZNSt3__113__countl_zeroB8ue170006IjEEiT_, symObjAddr: 0xAC0, symBinAddr: 0x10000A100, symSize: 0x54 }
  - { offsetInCU: 0x125B, offset: 0x189F9, size: 0x8, addend: 0x0, symName: __ZNSt3__112__libcpp_clzB8ue170006Ej, symObjAddr: 0xF58, symBinAddr: 0x10000A3CC, symSize: 0x18 }
  - { offsetInCU: 0x12E8, offset: 0x18A86, size: 0x8, addend: 0x0, symName: __ZNSt3__124uniform_int_distributionIiEclINS_23mersenne_twister_engineIjLm32ELm624ELm397ELm31ELj2567483615ELm11ELj4294967295ELm7ELj2636928640ELm15ELj4022730752ELm18ELj1812433253EEEEEiRT_RKNS1_10param_typeE, symObjAddr: 0x8A8, symBinAddr: 0x100009EE8, symSize: 0x188 }
  - { offsetInCU: 0x3171, offset: 0x1A90F, size: 0x8, addend: 0x0, symName: __ZN8ObstacleC2Ev, symObjAddr: 0x0, symBinAddr: 0x1000099E0, symSize: 0x1C }
  - { offsetInCU: 0x319C, offset: 0x1A93A, size: 0x8, addend: 0x0, symName: __ZN8ObstacleC1Ev, symObjAddr: 0x1C, symBinAddr: 0x1000099FC, symSize: 0x2C }
  - { offsetInCU: 0x31C6, offset: 0x1A964, size: 0x8, addend: 0x0, symName: __ZN8ObstacleC2Eii, symObjAddr: 0x48, symBinAddr: 0x100009A28, symSize: 0x18C }
  - { offsetInCU: 0x320C, offset: 0x1A9AA, size: 0x8, addend: 0x0, symName: __ZN8Obstacle17generateRandomIntEii, symObjAddr: 0x1D4, symBinAddr: 0x100009BB4, symSize: 0xAC }
  - { offsetInCU: 0x3276, offset: 0x1AA14, size: 0x8, addend: 0x0, symName: __ZN8ObstacleC1Eii, symObjAddr: 0x280, symBinAddr: 0x100009C60, symSize: 0x3C }
  - { offsetInCU: 0x32BC, offset: 0x1AA5A, size: 0x8, addend: 0x0, symName: __ZN8Obstacle9updatePosEdd, symObjAddr: 0x2BC, symBinAddr: 0x100009C9C, symSize: 0x88 }
  - { offsetInCU: 0x32FF, offset: 0x1AA9D, size: 0x8, addend: 0x0, symName: __ZN8Obstacle11checkBoundsEv, symObjAddr: 0x344, symBinAddr: 0x100009D24, symSize: 0x54 }
  - { offsetInCU: 0x3326, offset: 0x1AAC4, size: 0x8, addend: 0x0, symName: __ZN8Obstacle6renderEP12SDL_Renderer, symObjAddr: 0x398, symBinAddr: 0x100009D78, symSize: 0x60 }
  - { offsetInCU: 0x335A, offset: 0x1AAF8, size: 0x8, addend: 0x0, symName: __ZNSt3__124uniform_int_distributionIiEC1B8ue170006Eii, symObjAddr: 0x4A0, symBinAddr: 0x100009DD8, symSize: 0x3C }
  - { offsetInCU: 0x339E, offset: 0x1AB3C, size: 0x8, addend: 0x0, symName: __ZNSt3__124uniform_int_distributionIiEclB8ue170006INS_23mersenne_twister_engineIjLm32ELm624ELm397ELm31ELj2567483615ELm11ELj4294967295ELm7ELj2636928640ELm15ELj4022730752ELm18ELj1812433253EEEEEiRT_, symObjAddr: 0x4DC, symBinAddr: 0x100009E14, symSize: 0x30 }
  - { offsetInCU: 0x33D9, offset: 0x1AB77, size: 0x8, addend: 0x0, symName: __ZNSt3__124uniform_int_distributionIiEC2B8ue170006Eii, symObjAddr: 0x804, symBinAddr: 0x100009E44, symSize: 0x3C }
  - { offsetInCU: 0x341D, offset: 0x1ABBB, size: 0x8, addend: 0x0, symName: __ZNSt3__124uniform_int_distributionIiE10param_typeC1B8ue170006Eii, symObjAddr: 0x840, symBinAddr: 0x100009E80, symSize: 0x3C }
  - { offsetInCU: 0x3461, offset: 0x1ABFF, size: 0x8, addend: 0x0, symName: __ZNSt3__124uniform_int_distributionIiE10param_typeC2B8ue170006Eii, symObjAddr: 0x87C, symBinAddr: 0x100009EBC, symSize: 0x2C }
  - { offsetInCU: 0x34A5, offset: 0x1AC43, size: 0x8, addend: 0x0, symName: __ZNKSt3__124uniform_int_distributionIiE10param_type1bB8ue170006Ev, symObjAddr: 0xA30, symBinAddr: 0x10000A070, symSize: 0x18 }
  - { offsetInCU: 0x34C9, offset: 0x1AC67, size: 0x8, addend: 0x0, symName: __ZNKSt3__124uniform_int_distributionIiE10param_type1aB8ue170006Ev, symObjAddr: 0xA48, symBinAddr: 0x10000A088, symSize: 0x18 }
  - { offsetInCU: 0x34ED, offset: 0x1AC8B, size: 0x8, addend: 0x0, symName: __ZNSt3__125__independent_bits_engineINS_23mersenne_twister_engineIjLm32ELm624ELm397ELm31ELj2567483615ELm11ELj4294967295ELm7ELj2636928640ELm15ELj4022730752ELm18ELj1812433253EEEjEC1ERS2_m, symObjAddr: 0xA60, symBinAddr: 0x10000A0A0, symSize: 0x3C }
  - { offsetInCU: 0x3533, offset: 0x1ACD1, size: 0x8, addend: 0x0, symName: __ZNSt3__125__independent_bits_engineINS_23mersenne_twister_engineIjLm32ELm624ELm397ELm31ELj2567483615ELm11ELj4294967295ELm7ELj2636928640ELm15ELj4022730752ELm18ELj1812433253EEEjEclB8ue170006Ev, symObjAddr: 0xA9C, symBinAddr: 0x10000A0DC, symSize: 0x24 }
  - { offsetInCU: 0x3557, offset: 0x1ACF5, size: 0x8, addend: 0x0, symName: __ZNSt3__114numeric_limitsIjE3maxB8ue170006Ev, symObjAddr: 0xB14, symBinAddr: 0x10000A154, symSize: 0x14 }
  - { offsetInCU: 0x356B, offset: 0x1AD09, size: 0x8, addend: 0x0, symName: __ZNSt3__125__independent_bits_engineINS_23mersenne_twister_engineIjLm32ELm624ELm397ELm31ELj2567483615ELm11ELj4294967295ELm7ELj2636928640ELm15ELj4022730752ELm18ELj1812433253EEEjEC2ERS2_m, symObjAddr: 0xB28, symBinAddr: 0x10000A168, symSize: 0x22C }
  - { offsetInCU: 0x35B1, offset: 0x1AD4F, size: 0x8, addend: 0x0, symName: __ZNSt3__125__independent_bits_engineINS_23mersenne_twister_engineIjLm32ELm624ELm397ELm31ELj2567483615ELm11ELj4294967295ELm7ELj2636928640ELm15ELj4022730752ELm18ELj1812433253EEEjE6__evalENS_17integral_constantIbLb0EEE, symObjAddr: 0xD54, symBinAddr: 0x10000A394, symSize: 0x38 }
  - { offsetInCU: 0x35E1, offset: 0x1AD7F, size: 0x8, addend: 0x0, symName: __ZNSt3__123__libcpp_numeric_limitsIjLb1EE3maxB8ue170006Ev, symObjAddr: 0xF70, symBinAddr: 0x10000A3E4, symSize: 0x8 }
  - { offsetInCU: 0x2A16, offset: 0x1D7C7, size: 0x8, addend: 0x0, symName: __ZN6PlayerC2Ev, symObjAddr: 0x0, symBinAddr: 0x10000A3EC, symSize: 0x40 }
  - { offsetInCU: 0x2A40, offset: 0x1D7F1, size: 0x8, addend: 0x0, symName: __ZN6PlayerC1Ev, symObjAddr: 0x40, symBinAddr: 0x10000A42C, symSize: 0x2C }
  - { offsetInCU: 0x2A6A, offset: 0x1D81B, size: 0x8, addend: 0x0, symName: __ZN6PlayerC2Eddddi, symObjAddr: 0x6C, symBinAddr: 0x10000A458, symSize: 0x2B0 }
  - { offsetInCU: 0x2AF8, offset: 0x1D8A9, size: 0x8, addend: 0x0, symName: __ZN5ModelaSEOS_, symObjAddr: 0x31C, symBinAddr: 0x10000A708, symSize: 0x40 }
  - { offsetInCU: 0x2B26, offset: 0x1D8D7, size: 0x8, addend: 0x0, symName: __ZN6Player15createRandomIntEii, symObjAddr: 0x388, symBinAddr: 0x10000A748, symSize: 0xAC }
  - { offsetInCU: 0x2B90, offset: 0x1D941, size: 0x8, addend: 0x0, symName: __ZN6PlayerC1Eddddi, symObjAddr: 0x434, symBinAddr: 0x10000A7F4, symSize: 0x54 }
  - { offsetInCU: 0x2C00, offset: 0x1D9B1, size: 0x8, addend: 0x0, symName: __ZN6Player3setES_, symObjAddr: 0x488, symBinAddr: 0x10000A848, symSize: 0x13C }
  - { offsetInCU: 0x2C35, offset: 0x1D9E6, size: 0x8, addend: 0x0, symName: __ZN6Player8evalJumpEidd, symObjAddr: 0x5C4, symBinAddr: 0x10000A984, symSize: 0x1E8 }
  - { offsetInCU: 0x2CAF, offset: 0x1DA60, size: 0x8, addend: 0x0, symName: __ZN6Player4flapEd, symObjAddr: 0x7AC, symBinAddr: 0x10000AB6C, symSize: 0x38 }
  - { offsetInCU: 0x2CE4, offset: 0x1DA95, size: 0x8, addend: 0x0, symName: __ZN6Player9updatePosEdd, symObjAddr: 0x7E4, symBinAddr: 0x10000ABA4, symSize: 0x64 }
  - { offsetInCU: 0x2D27, offset: 0x1DAD8, size: 0x8, addend: 0x0, symName: __ZN6Player14isIntersectingE8SDL_Rect, symObjAddr: 0x848, symBinAddr: 0x10000AC08, symSize: 0x31C }
  - { offsetInCU: 0x2DE4, offset: 0x1DB95, size: 0x8, addend: 0x0, symName: __ZN6Player6renderEP12SDL_Renderer, symObjAddr: 0xB64, symBinAddr: 0x10000AF24, symSize: 0x70 }
  - { offsetInCU: 0x1C8B, offset: 0x1F85E, size: 0x8, addend: 0x0, symName: __ZNSt3__111__introsortINS_17_ClassicAlgPolicyERPFbRK5ModelS4_EPS2_Lb0EEEvT1_S9_T0_NS_15iterator_traitsIS9_E15difference_typeEb, symObjAddr: 0x37A8, symBinAddr: 0x10000D450, symSize: 0x478 }
  - { offsetInCU: 0x1DB6, offset: 0x1F989, size: 0x8, addend: 0x0, symName: __ZNSt3__126__insertion_sort_unguardedB8ue170006INS_17_ClassicAlgPolicyERPFbRK5ModelS4_EPS2_EEvT1_S9_T0_, symObjAddr: 0x3EF4, symBinAddr: 0x10000DB9C, symSize: 0x170 }
  - { offsetInCU: 0x1E8E, offset: 0x1FA61, size: 0x8, addend: 0x0, symName: __ZNSt3__111__sift_downB8ue170006INS_17_ClassicAlgPolicyERPFbRK5ModelS4_EPS2_EEvT1_OT0_NS_15iterator_traitsIS9_E15difference_typeES9_, symObjAddr: 0x5410, symBinAddr: 0x10000F078, symSize: 0x280 }
  - { offsetInCU: 0x1F3C, offset: 0x1FB0F, size: 0x8, addend: 0x0, symName: __ZNSt3__117__floyd_sift_downB8ue170006INS_17_ClassicAlgPolicyERPFbRK5ModelS4_EPS2_EET1_S9_OT0_NS_15iterator_traitsIS9_E15difference_typeE, symObjAddr: 0x587C, symBinAddr: 0x10000F4E4, symSize: 0x10C }
  - { offsetInCU: 0x1FD4, offset: 0x1FBA7, size: 0x8, addend: 0x0, symName: __ZNSt3__131__partition_with_equals_on_leftB8ue170006INS_17_ClassicAlgPolicyEP5ModelRPFbRKS2_S5_EEET0_S9_S9_T1_, symObjAddr: 0x4284, symBinAddr: 0x10000DF2C, symSize: 0x2B8 }
  - { offsetInCU: 0x208F, offset: 0x1FC62, size: 0x8, addend: 0x0, symName: __ZNSt3__118__bitset_partitionB8ue170006INS_17_ClassicAlgPolicyEP5ModelRPFbRKS2_S5_EEENS_4pairIT0_bEESA_SA_T1_, symObjAddr: 0x453C, symBinAddr: 0x10000E1E4, symSize: 0x3C8 }
  - { offsetInCU: 0x218C, offset: 0x1FD5F, size: 0x8, addend: 0x0, symName: __ZNSt3__124__swap_bitmap_pos_withinB8ue170006INS_17_ClassicAlgPolicyEP5ModelEEvRT0_S5_RyS6_, symObjAddr: 0x6050, symBinAddr: 0x10000FCB8, symSize: 0x1E8 }
  - { offsetInCU: 0x2259, offset: 0x1FE2C, size: 0x8, addend: 0x0, symName: __ZNSt3__132__partition_with_equals_on_rightB8ue170006INS_17_ClassicAlgPolicyEP5ModelRPFbRKS2_S5_EEENS_4pairIT0_bEESA_SA_T1_, symObjAddr: 0x4904, symBinAddr: 0x10000E5AC, symSize: 0x2AC }
  - { offsetInCU: 0x2324, offset: 0x1FEF7, size: 0x8, addend: 0x0, symName: __ZNSt3__127__insertion_sort_incompleteB8ue170006INS_17_ClassicAlgPolicyERPFbRK5ModelS4_EPS2_EEbT1_S9_T0_, symObjAddr: 0x4BB0, symBinAddr: 0x10000E858, symSize: 0x380 }
  - { offsetInCU: 0x2EF4, offset: 0x20AC7, size: 0x8, addend: 0x0, symName: __ZNSt3__14sortB8ue170006INS_11__wrap_iterIP5ModelEEPFbRKS2_S6_EEEvT_S9_T0_, symObjAddr: 0x97C, symBinAddr: 0x10000B734, symSize: 0x48 }
  - { offsetInCU: 0x2F4E, offset: 0x20B21, size: 0x8, addend: 0x0, symName: __ZNSt3__119__allocate_at_leastB8ue170006INS_9allocatorI5ModelEEEENS_19__allocation_resultINS_16allocator_traitsIT_E7pointerEEERS6_m, symObjAddr: 0x226C, symBinAddr: 0x10000C144, symSize: 0x40 }
  - { offsetInCU: 0x2F91, offset: 0x20B64, size: 0x8, addend: 0x0, symName: __ZNSt3__142__uninitialized_allocator_move_if_noexceptB8ue170006INS_9allocatorI5ModelEENS_16reverse_iteratorIPS2_EES6_S6_EET2_RT_T0_T1_S7_, symObjAddr: 0x24B8, symBinAddr: 0x10000C2FC, symSize: 0x12C }
  - { offsetInCU: 0x3031, offset: 0x20C04, size: 0x8, addend: 0x0, symName: __ZNSt3__14swapB8ue170006IP5ModelEENS_9enable_ifIXaasr21is_move_constructibleIT_EE5valuesr18is_move_assignableIS4_EE5valueEvE4typeERS4_S7_, symObjAddr: 0x2630, symBinAddr: 0x10000C474, symSize: 0x3C }
  - { offsetInCU: 0x3082, offset: 0x20C55, size: 0x8, addend: 0x0, symName: __ZNSt3__122__make_exception_guardB8ue170006INS_29_AllocatorDestroyRangeReverseINS_9allocatorI5ModelEENS_16reverse_iteratorIPS3_EEEEEENS_28__exception_guard_exceptionsIT_EESA_, symObjAddr: 0x275C, symBinAddr: 0x10000C578, symSize: 0x4C }
  - { offsetInCU: 0x30B8, offset: 0x20C8B, size: 0x8, addend: 0x0, symName: __ZNSt3__1neB8ue170006IP5ModelS2_EEbRKNS_16reverse_iteratorIT_EERKNS3_IT0_EE, symObjAddr: 0x27EC, symBinAddr: 0x10000C608, symSize: 0x48 }
  - { offsetInCU: 0x3104, offset: 0x20CD7, size: 0x8, addend: 0x0, symName: __ZNSt3__112__to_addressB8ue170006INS_16reverse_iteratorIP5ModelEEvEEu7__decayIDTclsr19__to_address_helperIT_EE6__callclsr3stdE7declvalIRKS5_EEEEES7_, symObjAddr: 0x2868, symBinAddr: 0x10000C684, symSize: 0x24 }
  - { offsetInCU: 0x3164, offset: 0x20D37, size: 0x8, addend: 0x0, symName: __ZNSt3__119__allocator_destroyB8ue170006INS_9allocatorI5ModelEENS_16reverse_iteratorINS4_IPS2_EEEES7_EEvRT_T0_T1_, symObjAddr: 0x2BBC, symBinAddr: 0x10000C9D8, symSize: 0x70 }
  - { offsetInCU: 0x31C9, offset: 0x20D9C, size: 0x8, addend: 0x0, symName: __ZNSt3__1neB8ue170006INS_16reverse_iteratorIP5ModelEES4_EEbRKNS1_IT_EERKNS1_IT0_EE, symObjAddr: 0x2C68, symBinAddr: 0x10000CA84, symSize: 0x60 }
  - { offsetInCU: 0x3215, offset: 0x20DE8, size: 0x8, addend: 0x0, symName: __ZNSt3__112__to_addressB8ue170006INS_16reverse_iteratorINS1_IP5ModelEEEEvEEu7__decayIDTclsr19__to_address_helperIT_EE6__callclsr3stdE7declvalIRKS6_EEEEES8_, symObjAddr: 0x2CC8, symBinAddr: 0x10000CAE4, symSize: 0x24 }
  - { offsetInCU: 0x3275, offset: 0x20E48, size: 0x8, addend: 0x0, symName: __ZNSt3__111__sort_implB8ue170006INS_17_ClassicAlgPolicyENS_11__wrap_iterIP5ModelEEPFbRKS3_S7_EEEvT0_SA_RT1_, symObjAddr: 0x35F0, symBinAddr: 0x10000D298, symSize: 0xA8 }
  - { offsetInCU: 0x32D8, offset: 0x20EAB, size: 0x8, addend: 0x0, symName: __ZNSt3__123__debug_randomize_rangeB8ue170006INS_17_ClassicAlgPolicyENS_11__wrap_iterIP5ModelEES5_EEvT0_T1_, symObjAddr: 0x3698, symBinAddr: 0x10000D340, symSize: 0x14 }
  - { offsetInCU: 0x332A, offset: 0x20EFD, size: 0x8, addend: 0x0, symName: __ZNSt3__115__sort_dispatchB8ue170006INS_17_ClassicAlgPolicyEP5ModelPFbRKS2_S5_EEEvT0_S8_RT1_, symObjAddr: 0x36AC, symBinAddr: 0x10000D354, symSize: 0x64 }
  - { offsetInCU: 0x33A8, offset: 0x20F7B, size: 0x8, addend: 0x0, symName: __ZNSt3__113__unwrap_iterB8ue170006INS_11__wrap_iterIP5ModelEENS_18__unwrap_iter_implIS4_Lb1EEELi0EEEDTclsrT0_8__unwrapclsr3stdE7declvalIT_EEEES8_, symObjAddr: 0x3710, symBinAddr: 0x10000D3B8, symSize: 0x2C }
  - { offsetInCU: 0x33EC, offset: 0x20FBF, size: 0x8, addend: 0x0, symName: __ZNSt3__135__check_strict_weak_ordering_sortedB8ue170006IP5ModelPFbRKS1_S4_EEEvT_S7_RT0_, symObjAddr: 0x373C, symBinAddr: 0x10000D3E4, symSize: 0x18 }
  - { offsetInCU: 0x3443, offset: 0x21016, size: 0x8, addend: 0x0, symName: __ZNSt3__17__log2iB8ue170006IlEET_S1_, symObjAddr: 0x3754, symBinAddr: 0x10000D3FC, symSize: 0x54 }
  - { offsetInCU: 0x347A, offset: 0x2104D, size: 0x8, addend: 0x0, symName: __ZNSt3__112__libcpp_clzB8ue170006Em, symObjAddr: 0x3C38, symBinAddr: 0x10000D8E0, symSize: 0x1C }
  - { offsetInCU: 0x3587, offset: 0x2115A, size: 0x8, addend: 0x0, symName: __ZNSt3__124__sort3_maybe_branchlessB8ue170006INS_17_ClassicAlgPolicyERPFbRK5ModelS4_EPS2_EENS_9enable_ifIXntsr21__use_branchless_sortIT0_T1_EE5valueEvE4typeESB_SB_SB_SA_, symObjAddr: 0x3C88, symBinAddr: 0x10000D930, symSize: 0x3C }
  - { offsetInCU: 0x35F8, offset: 0x211CB, size: 0x8, addend: 0x0, symName: __ZNSt3__124__sort4_maybe_branchlessB8ue170006INS_17_ClassicAlgPolicyERPFbRK5ModelS4_EPS2_EENS_9enable_ifIXntsr21__use_branchless_sortIT0_T1_EE5valueEvE4typeESB_SB_SB_SB_SA_, symObjAddr: 0x3CC4, symBinAddr: 0x10000D96C, symSize: 0x44 }
  - { offsetInCU: 0x3677, offset: 0x2124A, size: 0x8, addend: 0x0, symName: __ZNSt3__124__sort5_maybe_branchlessB8ue170006INS_17_ClassicAlgPolicyERPFbRK5ModelS4_EPS2_EENS_9enable_ifIXntsr21__use_branchless_sortIT0_T1_EE5valueEvE4typeESB_SB_SB_SB_SB_SA_, symObjAddr: 0x3D08, symBinAddr: 0x10000D9B0, symSize: 0x4C }
  - { offsetInCU: 0x3704, offset: 0x212D7, size: 0x8, addend: 0x0, symName: __ZNSt3__116__insertion_sortB8ue170006INS_17_ClassicAlgPolicyERPFbRK5ModelS4_EPS2_EEvT1_S9_T0_, symObjAddr: 0x3D54, symBinAddr: 0x10000D9FC, symSize: 0x1A0 }
  - { offsetInCU: 0x37B8, offset: 0x2138B, size: 0x8, addend: 0x0, symName: __ZNSt3__114__partial_sortB8ue170006INS_17_ClassicAlgPolicyERPFbRK5ModelS4_EPS2_S8_EET1_S9_S9_T2_RT0_, symObjAddr: 0x4064, symBinAddr: 0x10000DD0C, symSize: 0x94 }
  - { offsetInCU: 0x3840, offset: 0x21413, size: 0x8, addend: 0x0, symName: __ZNSt3__17__sort3B8ue170006INS_17_ClassicAlgPolicyERPFbRK5ModelS4_EPS2_EEjT1_S9_S9_T0_, symObjAddr: 0x40F8, symBinAddr: 0x10000DDA0, symSize: 0x158 }
  - { offsetInCU: 0x38BF, offset: 0x21492, size: 0x8, addend: 0x0, symName: __ZNSt3__19iter_swapB8ue170006IP5ModelS2_EEvT_T0_, symObjAddr: 0x4F48, symBinAddr: 0x10000EBF0, symSize: 0x2C }
  - { offsetInCU: 0x3908, offset: 0x214DB, size: 0x8, addend: 0x0, symName: __ZNSt3__14swapB8ue170006I5ModelEENS_9enable_ifIXaasr21is_move_constructibleIT_EE5valuesr18is_move_assignableIS3_EE5valueEvE4typeERS3_S6_, symObjAddr: 0x4F74, symBinAddr: 0x10000EC1C, symSize: 0x74 }
  - { offsetInCU: 0x3959, offset: 0x2152C, size: 0x8, addend: 0x0, symName: __ZNSt3__17__sort4B8ue170006INS_17_ClassicAlgPolicyERPFbRK5ModelS4_EPS2_EEvT1_S9_S9_S9_T0_, symObjAddr: 0x5028, symBinAddr: 0x10000EC90, symSize: 0xC4 }
  - { offsetInCU: 0x39D5, offset: 0x215A8, size: 0x8, addend: 0x0, symName: __ZNSt3__17__sort5B8ue170006INS_17_ClassicAlgPolicyERPFbRK5ModelS4_EPS2_EEvT1_S9_S9_S9_S9_T0_, symObjAddr: 0x50EC, symBinAddr: 0x10000ED54, symSize: 0xF8 }
  - { offsetInCU: 0x3A83, offset: 0x21656, size: 0x8, addend: 0x0, symName: __ZNSt3__123__debug_randomize_rangeB8ue170006INS_17_ClassicAlgPolicyEP5ModelS3_EEvT0_T1_, symObjAddr: 0x5228, symBinAddr: 0x10000EE90, symSize: 0x14 }
  - { offsetInCU: 0x3AD5, offset: 0x216A8, size: 0x8, addend: 0x0, symName: __ZNSt3__119__partial_sort_implB8ue170006INS_17_ClassicAlgPolicyERPFbRK5ModelS4_EPS2_S8_EET1_S9_S9_T2_OT0_, symObjAddr: 0x523C, symBinAddr: 0x10000EEA4, symSize: 0x114 }
  - { offsetInCU: 0x3B6B, offset: 0x2173E, size: 0x8, addend: 0x0, symName: __ZNSt3__111__make_heapB8ue170006INS_17_ClassicAlgPolicyERPFbRK5ModelS4_EPS2_EEvT1_S9_OT0_, symObjAddr: 0x5350, symBinAddr: 0x10000EFB8, symSize: 0xC0 }
  - { offsetInCU: 0x3C0E, offset: 0x217E1, size: 0x8, addend: 0x0, symName: __ZNSt3__111__sort_heapB8ue170006INS_17_ClassicAlgPolicyERPFbRK5ModelS4_EPS2_EEvT1_S9_OT0_, symObjAddr: 0x5690, symBinAddr: 0x10000F2F8, symSize: 0xA8 }
  - { offsetInCU: 0x3CB1, offset: 0x21884, size: 0x8, addend: 0x0, symName: __ZNSt3__110__pop_heapB8ue170006INS_17_ClassicAlgPolicyEPFbRK5ModelS4_EPS2_EEvT1_S8_RT0_NS_15iterator_traitsIS8_E15difference_typeE, symObjAddr: 0x5738, symBinAddr: 0x10000F3A0, symSize: 0x144 }
  - { offsetInCU: 0x3D5A, offset: 0x2192D, size: 0x8, addend: 0x0, symName: __ZNSt3__19__sift_upB8ue170006INS_17_ClassicAlgPolicyERPFbRK5ModelS4_EPS2_EEvT1_S9_OT0_NS_15iterator_traitsIS9_E15difference_typeE, symObjAddr: 0x5988, symBinAddr: 0x10000F5F0, symSize: 0x17C }
  - { offsetInCU: 0x3DFB, offset: 0x219CE, size: 0x8, addend: 0x0, symName: __ZNSt3__122__populate_left_bitsetB8ue170006IRPFbRK5ModelS3_EPS1_S1_EEvT0_T_RT1_Ry, symObjAddr: 0x5B04, symBinAddr: 0x10000F76C, symSize: 0xAC }
  - { offsetInCU: 0x3EB6, offset: 0x21A89, size: 0x8, addend: 0x0, symName: __ZNSt3__123__populate_right_bitsetB8ue170006IRPFbRK5ModelS3_EPS1_S1_EEvT0_T_RT1_Ry, symObjAddr: 0x5BB0, symBinAddr: 0x10000F818, symSize: 0xA4 }
  - { offsetInCU: 0x3F71, offset: 0x21B44, size: 0x8, addend: 0x0, symName: __ZNSt3__117__swap_bitmap_posB8ue170006INS_17_ClassicAlgPolicyEP5ModelEEvT0_S4_RyS5_, symObjAddr: 0x5C54, symBinAddr: 0x10000F8BC, symSize: 0x104 }
  - { offsetInCU: 0x4012, offset: 0x21BE5, size: 0x8, addend: 0x0, symName: __ZNSt3__133__bitset_partition_partial_blocksB8ue170006INS_17_ClassicAlgPolicyERPFbRK5ModelS4_EPS2_S2_EEvRT1_SA_T0_RT2_RySE_, symObjAddr: 0x5D58, symBinAddr: 0x10000F9C0, symSize: 0x2F8 }
  - { offsetInCU: 0x4193, offset: 0x21D66, size: 0x8, addend: 0x0, symName: __ZNSt3__19make_pairB8ue170006IRP5ModelRbEENS_4pairINS_18__unwrap_ref_decayIT_E4typeENS6_IT0_E4typeEEEOS7_OSA_, symObjAddr: 0x6238, symBinAddr: 0x10000FEA0, symSize: 0x38 }
  - { offsetInCU: 0x41E2, offset: 0x21DB5, size: 0x8, addend: 0x0, symName: __ZNSt3__112__libcpp_ctzB8ue170006Ey, symObjAddr: 0x6270, symBinAddr: 0x10000FED8, symSize: 0x20 }
  - { offsetInCU: 0x420E, offset: 0x21DE1, size: 0x8, addend: 0x0, symName: __ZNSt3__113__libcpp_blsrB8ue170006Ey, symObjAddr: 0x6290, symBinAddr: 0x10000FEF8, symSize: 0x2C }
  - { offsetInCU: 0x423A, offset: 0x21E0D, size: 0x8, addend: 0x0, symName: __ZNSt3__112__libcpp_clzB8ue170006Ey, symObjAddr: 0x62F0, symBinAddr: 0x10000FF58, symSize: 0x1C }
  - { offsetInCU: 0x438D, offset: 0x21F60, size: 0x8, addend: 0x0, symName: __ZNSt3__112__to_addressB8ue170006INS_11__wrap_iterIP5ModelEEvEEu7__decayIDTclsr19__to_address_helperIT_EE6__callclsr3stdE7declvalIRKS5_EEEEES7_, symObjAddr: 0x63A8, symBinAddr: 0x100010010, symSize: 0x24 }
  - { offsetInCU: 0x47AD, offset: 0x22380, size: 0x8, addend: 0x0, symName: __ZNSt3__16vectorI5ModelNS_9allocatorIS1_EEE26__swap_out_circular_bufferERNS_14__split_bufferIS1_RS3_EE, symObjAddr: 0x1DC4, symBinAddr: 0x10000BE50, symSize: 0x110 }
  - { offsetInCU: 0x65BB, offset: 0x2418E, size: 0x8, addend: 0x0, symName: __Z7moreFitRK5ModelS1_, symObjAddr: 0x0, symBinAddr: 0x10000AF94, symSize: 0x30 }
  - { offsetInCU: 0x65F5, offset: 0x241C8, size: 0x8, addend: 0x0, symName: __Z20generateRandomNumberdd, symObjAddr: 0x30, symBinAddr: 0x10000AFC4, symSize: 0xA8 }
  - { offsetInCU: 0x6740, offset: 0x24313, size: 0x8, addend: 0x0, symName: __ZN10PopulationC2Ev, symObjAddr: 0x1EC, symBinAddr: 0x10000B06C, symSize: 0x30 }
  - { offsetInCU: 0x6769, offset: 0x2433C, size: 0x8, addend: 0x0, symName: __ZNSt3__16vectorI5ModelNS_9allocatorIS1_EEEC1B8ue170006Ev, symObjAddr: 0x21C, symBinAddr: 0x10000B09C, symSize: 0x2C }
  - { offsetInCU: 0x6792, offset: 0x24365, size: 0x8, addend: 0x0, symName: __ZN10PopulationC1Ev, symObjAddr: 0x248, symBinAddr: 0x10000B0C8, symSize: 0x2C }
  - { offsetInCU: 0x67BC, offset: 0x2438F, size: 0x8, addend: 0x0, symName: __ZN10PopulationC2Eii, symObjAddr: 0x274, symBinAddr: 0x10000B0F4, symSize: 0x108 }
  - { offsetInCU: 0x6815, offset: 0x243E8, size: 0x8, addend: 0x0, symName: __ZNSt3__16vectorI5ModelNS_9allocatorIS1_EEE7reserveEm, symObjAddr: 0x37C, symBinAddr: 0x10000B1FC, symSize: 0xE8 }
  - { offsetInCU: 0x686F, offset: 0x24442, size: 0x8, addend: 0x0, symName: __ZNSt3__16vectorI5ModelNS_9allocatorIS1_EEE9push_backB8ue170006EOS1_, symObjAddr: 0x464, symBinAddr: 0x10000B2E4, symSize: 0x6C }
  - { offsetInCU: 0x68A5, offset: 0x24478, size: 0x8, addend: 0x0, symName: __ZN10PopulationC1Eii, symObjAddr: 0x528, symBinAddr: 0x10000B350, symSize: 0x3C }
  - { offsetInCU: 0x68EB, offset: 0x244BE, size: 0x8, addend: 0x0, symName: __ZN10Population15clearPopulationEv, symObjAddr: 0x564, symBinAddr: 0x10000B38C, symSize: 0x9C }
  - { offsetInCU: 0x692D, offset: 0x24500, size: 0x8, addend: 0x0, symName: __ZN10Population13setPopulationES_, symObjAddr: 0x670, symBinAddr: 0x10000B428, symSize: 0xCC }
  - { offsetInCU: 0x6976, offset: 0x24549, size: 0x8, addend: 0x0, symName: __ZN10Population15fitnessFunctionEP6MatrixPdi, symObjAddr: 0x73C, symBinAddr: 0x10000B4F4, symSize: 0x88 }
  - { offsetInCU: 0x69E2, offset: 0x245B5, size: 0x8, addend: 0x0, symName: __ZN10Population10getFittestEi, symObjAddr: 0x7C4, symBinAddr: 0x10000B57C, symSize: 0x1B8 }
  - { offsetInCU: 0x6A40, offset: 0x24613, size: 0x8, addend: 0x0, symName: __ZNSt3__16vectorI5ModelNS_9allocatorIS1_EEE5beginB8ue170006Ev, symObjAddr: 0x9C4, symBinAddr: 0x10000B77C, symSize: 0x30 }
  - { offsetInCU: 0x6A66, offset: 0x24639, size: 0x8, addend: 0x0, symName: __ZNSt3__16vectorI5ModelNS_9allocatorIS1_EEE3endB8ue170006Ev, symObjAddr: 0x9F4, symBinAddr: 0x10000B7AC, symSize: 0x30 }
  - { offsetInCU: 0x6A8D, offset: 0x24660, size: 0x8, addend: 0x0, symName: __ZN10Population9crossOverEiid, symObjAddr: 0xA50, symBinAddr: 0x10000B7DC, symSize: 0x464 }
  - { offsetInCU: 0x6BB1, offset: 0x24784, size: 0x8, addend: 0x0, symName: __ZNSt3__16vectorI5ModelNS_9allocatorIS1_EEEC2B8ue170006Ev, symObjAddr: 0x1638, symBinAddr: 0x10000BC40, symSize: 0x4C }
  - { offsetInCU: 0x6BDE, offset: 0x247B1, size: 0x8, addend: 0x0, symName: __ZNSt3__117__compressed_pairIP5ModelNS_9allocatorIS1_EEEC1B8ue170006IDnNS_18__default_init_tagEEEOT_OT0_, symObjAddr: 0x1684, symBinAddr: 0x10000BC8C, symSize: 0x3C }
  - { offsetInCU: 0x6C34, offset: 0x24807, size: 0x8, addend: 0x0, symName: __ZNSt3__117__compressed_pairIP5ModelNS_9allocatorIS1_EEEC2B8ue170006IDnNS_18__default_init_tagEEEOT_OT0_, symObjAddr: 0x16C0, symBinAddr: 0x10000BCC8, symSize: 0x40 }
  - { offsetInCU: 0x6C8B, offset: 0x2485E, size: 0x8, addend: 0x0, symName: __ZNSt3__122__compressed_pair_elemIP5ModelLi0ELb0EEC2B8ue170006IDnvEEOT_, symObjAddr: 0x1700, symBinAddr: 0x10000BD08, symSize: 0x1C }
  - { offsetInCU: 0x6CCA, offset: 0x2489D, size: 0x8, addend: 0x0, symName: __ZNSt3__122__compressed_pair_elemINS_9allocatorI5ModelEELi1ELb1EEC2B8ue170006ENS_18__default_init_tagE, symObjAddr: 0x171C, symBinAddr: 0x10000BD24, symSize: 0x2C }
  - { offsetInCU: 0x6CFC, offset: 0x248CF, size: 0x8, addend: 0x0, symName: __ZNSt3__19allocatorI5ModelEC2B8ue170006Ev, symObjAddr: 0x1748, symBinAddr: 0x10000BD50, symSize: 0x2C }
  - { offsetInCU: 0x6D25, offset: 0x248F8, size: 0x8, addend: 0x0, symName: __ZNSt3__116__non_trivial_ifILb1ENS_9allocatorI5ModelEEEC2B8ue170006Ev, symObjAddr: 0x1774, symBinAddr: 0x10000BD7C, symSize: 0x14 }
  - { offsetInCU: 0x6D4C, offset: 0x2491F, size: 0x8, addend: 0x0, symName: __ZNKSt3__16vectorI5ModelNS_9allocatorIS1_EEE8max_sizeEv, symObjAddr: 0x1D04, symBinAddr: 0x10000BD90, symSize: 0x60 }
  - { offsetInCU: 0x6D72, offset: 0x24945, size: 0x8, addend: 0x0, symName: __ZNKSt3__16vectorI5ModelNS_9allocatorIS1_EEE20__throw_length_errorB8ue170006Ev, symObjAddr: 0x1D64, symBinAddr: 0x10000BDF0, symSize: 0x1C }
  - { offsetInCU: 0x6D97, offset: 0x2496A, size: 0x8, addend: 0x0, symName: __ZNSt3__114__split_bufferI5ModelRNS_9allocatorIS1_EEEC1EmmS4_, symObjAddr: 0x1D80, symBinAddr: 0x10000BE0C, symSize: 0x44 }
  - { offsetInCU: 0x6DEC, offset: 0x249BF, size: 0x8, addend: 0x0, symName: __ZNSt3__114__split_bufferI5ModelRNS_9allocatorIS1_EEED1Ev, symObjAddr: 0x1ED4, symBinAddr: 0x10000BF60, symSize: 0x2C }
  - { offsetInCU: 0x6E21, offset: 0x249F4, size: 0x8, addend: 0x0, symName: __ZNSt3__116allocator_traitsINS_9allocatorI5ModelEEE8max_sizeB8ue170006IS3_vEEmRKS3_, symObjAddr: 0x1F2C, symBinAddr: 0x10000BF8C, symSize: 0x24 }
  - { offsetInCU: 0x6E4D, offset: 0x24A20, size: 0x8, addend: 0x0, symName: __ZNKSt3__16vectorI5ModelNS_9allocatorIS1_EEE7__allocB8ue170006Ev, symObjAddr: 0x1F50, symBinAddr: 0x10000BFB0, symSize: 0x28 }
  - { offsetInCU: 0x6E72, offset: 0x24A45, size: 0x8, addend: 0x0, symName: __ZNKSt3__19allocatorI5ModelE8max_sizeB8ue170006Ev, symObjAddr: 0x2014, symBinAddr: 0x10000BFD8, symSize: 0x18 }
  - { offsetInCU: 0x6E95, offset: 0x24A68, size: 0x8, addend: 0x0, symName: __ZNKSt3__117__compressed_pairIP5ModelNS_9allocatorIS1_EEE6secondB8ue170006Ev, symObjAddr: 0x202C, symBinAddr: 0x10000BFF0, symSize: 0x24 }
  - { offsetInCU: 0x6EBA, offset: 0x24A8D, size: 0x8, addend: 0x0, symName: __ZNKSt3__122__compressed_pair_elemINS_9allocatorI5ModelEELi1ELb1EE5__getB8ue170006Ev, symObjAddr: 0x2050, symBinAddr: 0x10000C014, symSize: 0x14 }
  - { offsetInCU: 0x6EDE, offset: 0x24AB1, size: 0x8, addend: 0x0, symName: __ZNSt3__114__split_bufferI5ModelRNS_9allocatorIS1_EEEC2EmmS4_, symObjAddr: 0x2150, symBinAddr: 0x10000C028, symSize: 0xE0 }
  - { offsetInCU: 0x6F4F, offset: 0x24B22, size: 0x8, addend: 0x0, symName: __ZNSt3__117__compressed_pairIP5ModelRNS_9allocatorIS1_EEEC1B8ue170006IDnS5_EEOT_OT0_, symObjAddr: 0x2230, symBinAddr: 0x10000C108, symSize: 0x3C }
  - { offsetInCU: 0x6FA5, offset: 0x24B78, size: 0x8, addend: 0x0, symName: __ZNSt3__114__split_bufferI5ModelRNS_9allocatorIS1_EEE7__allocB8ue170006Ev, symObjAddr: 0x22AC, symBinAddr: 0x10000C184, symSize: 0x28 }
  - { offsetInCU: 0x6FC9, offset: 0x24B9C, size: 0x8, addend: 0x0, symName: __ZNSt3__114__split_bufferI5ModelRNS_9allocatorIS1_EEE9__end_capB8ue170006Ev, symObjAddr: 0x22D4, symBinAddr: 0x10000C1AC, symSize: 0x28 }
  - { offsetInCU: 0x6FED, offset: 0x24BC0, size: 0x8, addend: 0x0, symName: __ZNSt3__117__compressed_pairIP5ModelRNS_9allocatorIS1_EEEC2B8ue170006IDnS5_EEOT_OT0_, symObjAddr: 0x22FC, symBinAddr: 0x10000C1D4, symSize: 0x48 }
  - { offsetInCU: 0x7044, offset: 0x24C17, size: 0x8, addend: 0x0, symName: __ZNSt3__122__compressed_pair_elemIRNS_9allocatorI5ModelEELi1ELb0EEC2B8ue170006IS4_vEEOT_, symObjAddr: 0x2344, symBinAddr: 0x10000C21C, symSize: 0x20 }
  - { offsetInCU: 0x7083, offset: 0x24C56, size: 0x8, addend: 0x0, symName: __ZNSt3__19allocatorI5ModelE8allocateB8ue170006Em, symObjAddr: 0x2364, symBinAddr: 0x10000C23C, symSize: 0x5C }
  - { offsetInCU: 0x70B5, offset: 0x24C88, size: 0x8, addend: 0x0, symName: __ZNSt3__117__compressed_pairIP5ModelRNS_9allocatorIS1_EEE6secondB8ue170006Ev, symObjAddr: 0x2440, symBinAddr: 0x10000C298, symSize: 0x28 }
  - { offsetInCU: 0x70DA, offset: 0x24CAD, size: 0x8, addend: 0x0, symName: __ZNSt3__122__compressed_pair_elemIRNS_9allocatorI5ModelEELi1ELb0EE5__getB8ue170006Ev, symObjAddr: 0x2468, symBinAddr: 0x10000C2C0, symSize: 0x18 }
  - { offsetInCU: 0x70FD, offset: 0x24CD0, size: 0x8, addend: 0x0, symName: __ZNSt3__117__compressed_pairIP5ModelRNS_9allocatorIS1_EEE5firstB8ue170006Ev, symObjAddr: 0x2480, symBinAddr: 0x10000C2D8, symSize: 0x24 }
  - { offsetInCU: 0x7121, offset: 0x24CF4, size: 0x8, addend: 0x0, symName: __ZNSt3__116reverse_iteratorIP5ModelEC1B8ue170006ES2_, symObjAddr: 0x25E4, symBinAddr: 0x10000C428, symSize: 0x34 }
  - { offsetInCU: 0x7158, offset: 0x24D2B, size: 0x8, addend: 0x0, symName: __ZNKSt3__116reverse_iteratorIP5ModelE4baseB8ue170006Ev, symObjAddr: 0x2618, symBinAddr: 0x10000C45C, symSize: 0x18 }
  - { offsetInCU: 0x717B, offset: 0x24D4E, size: 0x8, addend: 0x0, symName: __ZNKSt3__16vectorI5ModelNS_9allocatorIS1_EEE14__annotate_newB8ue170006Em, symObjAddr: 0x2694, symBinAddr: 0x10000C4B0, symSize: 0xC8 }
  - { offsetInCU: 0x71AE, offset: 0x24D81, size: 0x8, addend: 0x0, symName: __ZNSt3__129_AllocatorDestroyRangeReverseINS_9allocatorI5ModelEENS_16reverse_iteratorIPS2_EEEC1B8ue170006ERS3_RS6_S9_, symObjAddr: 0x27A8, symBinAddr: 0x10000C5C4, symSize: 0x44 }
  - { offsetInCU: 0x7204, offset: 0x24DD7, size: 0x8, addend: 0x0, symName: __ZNSt3__116allocator_traitsINS_9allocatorI5ModelEEE9constructB8ue170006IS2_JRKS2_EvEEvRS3_PT_DpOT0_, symObjAddr: 0x2834, symBinAddr: 0x10000C650, symSize: 0x34 }
  - { offsetInCU: 0x725A, offset: 0x24E2D, size: 0x8, addend: 0x0, symName: __ZNKSt3__116reverse_iteratorIP5ModelEdeB8ue170006Ev, symObjAddr: 0x288C, symBinAddr: 0x10000C6A8, symSize: 0x28 }
  - { offsetInCU: 0x728C, offset: 0x24E5F, size: 0x8, addend: 0x0, symName: __ZNSt3__116reverse_iteratorIP5ModelEppB8ue170006Ev, symObjAddr: 0x28B4, symBinAddr: 0x10000C6D0, symSize: 0x20 }
  - { offsetInCU: 0x72B0, offset: 0x24E83, size: 0x8, addend: 0x0, symName: __ZNSt3__128__exception_guard_exceptionsINS_29_AllocatorDestroyRangeReverseINS_9allocatorI5ModelEENS_16reverse_iteratorIPS3_EEEEE10__completeB8ue170006Ev, symObjAddr: 0x28D4, symBinAddr: 0x10000C6F0, symSize: 0x1C }
  - { offsetInCU: 0x72D3, offset: 0x24EA6, size: 0x8, addend: 0x0, symName: __ZNSt3__128__exception_guard_exceptionsINS_29_AllocatorDestroyRangeReverseINS_9allocatorI5ModelEENS_16reverse_iteratorIPS3_EEEEED1B8ue170006Ev, symObjAddr: 0x28F0, symBinAddr: 0x10000C70C, symSize: 0x2C }
  - { offsetInCU: 0x72FB, offset: 0x24ECE, size: 0x8, addend: 0x0, symName: __ZNSt3__128__exception_guard_exceptionsINS_29_AllocatorDestroyRangeReverseINS_9allocatorI5ModelEENS_16reverse_iteratorIPS3_EEEEEC1B8ue170006ES8_, symObjAddr: 0x291C, symBinAddr: 0x10000C738, symSize: 0x34 }
  - { offsetInCU: 0x7333, offset: 0x24F06, size: 0x8, addend: 0x0, symName: __ZNSt3__128__exception_guard_exceptionsINS_29_AllocatorDestroyRangeReverseINS_9allocatorI5ModelEENS_16reverse_iteratorIPS3_EEEEEC2B8ue170006ES8_, symObjAddr: 0x2950, symBinAddr: 0x10000C76C, symSize: 0x30 }
  - { offsetInCU: 0x736A, offset: 0x24F3D, size: 0x8, addend: 0x0, symName: __ZNSt3__129_AllocatorDestroyRangeReverseINS_9allocatorI5ModelEENS_16reverse_iteratorIPS2_EEEC2B8ue170006ERS3_RS6_S9_, symObjAddr: 0x2980, symBinAddr: 0x10000C79C, symSize: 0x38 }
  - { offsetInCU: 0x73BE, offset: 0x24F91, size: 0x8, addend: 0x0, symName: __ZNSt3__19allocatorI5ModelE9constructB8ue170006IS1_JRKS1_EEEvPT_DpOT0_, symObjAddr: 0x29B8, symBinAddr: 0x10000C7D4, symSize: 0x30 }
  - { offsetInCU: 0x7413, offset: 0x24FE6, size: 0x8, addend: 0x0, symName: __ZN5ModelC1ERKS_, symObjAddr: 0x29E8, symBinAddr: 0x10000C804, symSize: 0x34 }
  - { offsetInCU: 0x7445, offset: 0x25018, size: 0x8, addend: 0x0, symName: __ZN5ModelC2ERKS_, symObjAddr: 0x2A1C, symBinAddr: 0x10000C838, symSize: 0x40 }
  - { offsetInCU: 0x747C, offset: 0x2504F, size: 0x8, addend: 0x0, symName: __ZNSt3__119__to_address_helperINS_16reverse_iteratorIP5ModelEEvE6__callB8ue170006ERKS4_, symObjAddr: 0x2A5C, symBinAddr: 0x10000C878, symSize: 0x38 }
  - { offsetInCU: 0x749D, offset: 0x25070, size: 0x8, addend: 0x0, symName: __ZNKSt3__116reverse_iteratorIP5ModelEptB8ue170006Ev, symObjAddr: 0x2A94, symBinAddr: 0x10000C8B0, symSize: 0x24 }
  - { offsetInCU: 0x74C1, offset: 0x25094, size: 0x8, addend: 0x0, symName: __ZNSt3__128__exception_guard_exceptionsINS_29_AllocatorDestroyRangeReverseINS_9allocatorI5ModelEENS_16reverse_iteratorIPS3_EEEEED2B8ue170006Ev, symObjAddr: 0x2AB8, symBinAddr: 0x10000C8D4, symSize: 0x50 }
  - { offsetInCU: 0x74E9, offset: 0x250BC, size: 0x8, addend: 0x0, symName: __ZNKSt3__129_AllocatorDestroyRangeReverseINS_9allocatorI5ModelEENS_16reverse_iteratorIPS2_EEEclB8ue170006Ev, symObjAddr: 0x2B08, symBinAddr: 0x10000C924, symSize: 0xB4 }
  - { offsetInCU: 0x750E, offset: 0x250E1, size: 0x8, addend: 0x0, symName: __ZNSt3__116reverse_iteratorINS0_IP5ModelEEEC1B8ue170006ES3_, symObjAddr: 0x2C2C, symBinAddr: 0x10000CA48, symSize: 0x3C }
  - { offsetInCU: 0x7544, offset: 0x25117, size: 0x8, addend: 0x0, symName: __ZNSt3__116reverse_iteratorINS0_IP5ModelEEEppB8ue170006Ev, symObjAddr: 0x2CEC, symBinAddr: 0x10000CB08, symSize: 0x30 }
  - { offsetInCU: 0x7569, offset: 0x2513C, size: 0x8, addend: 0x0, symName: __ZNKSt3__116reverse_iteratorINS0_IP5ModelEEE4baseB8ue170006Ev, symObjAddr: 0x2D1C, symBinAddr: 0x10000CB38, symSize: 0x24 }
  - { offsetInCU: 0x7592, offset: 0x25165, size: 0x8, addend: 0x0, symName: __ZNSt3__119__to_address_helperINS_16reverse_iteratorINS1_IP5ModelEEEEvE6__callB8ue170006ERKS5_, symObjAddr: 0x2D40, symBinAddr: 0x10000CB5C, symSize: 0x38 }
  - { offsetInCU: 0x75B3, offset: 0x25186, size: 0x8, addend: 0x0, symName: __ZNKSt3__116reverse_iteratorINS0_IP5ModelEEEptB8ue170006Ev, symObjAddr: 0x2D78, symBinAddr: 0x10000CB94, symSize: 0x24 }
  - { offsetInCU: 0x75D7, offset: 0x251AA, size: 0x8, addend: 0x0, symName: __ZNKSt3__116reverse_iteratorINS0_IP5ModelEEEdeB8ue170006Ev, symObjAddr: 0x2D9C, symBinAddr: 0x10000CBB8, symSize: 0x34 }
  - { offsetInCU: 0x760A, offset: 0x251DD, size: 0x8, addend: 0x0, symName: __ZNSt3__116reverse_iteratorIP5ModelEmmB8ue170006Ev, symObjAddr: 0x2DD0, symBinAddr: 0x10000CBEC, symSize: 0x20 }
  - { offsetInCU: 0x762E, offset: 0x25201, size: 0x8, addend: 0x0, symName: __ZNSt3__116reverse_iteratorINS0_IP5ModelEEEC2B8ue170006ES3_, symObjAddr: 0x2DF0, symBinAddr: 0x10000CC0C, symSize: 0x2C }
  - { offsetInCU: 0x7664, offset: 0x25237, size: 0x8, addend: 0x0, symName: __ZNSt3__116reverse_iteratorIP5ModelEC2B8ue170006ES2_, symObjAddr: 0x2E1C, symBinAddr: 0x10000CC38, symSize: 0x28 }
  - { offsetInCU: 0x769A, offset: 0x2526D, size: 0x8, addend: 0x0, symName: __ZNSt3__114__split_bufferI5ModelRNS_9allocatorIS1_EEED2Ev, symObjAddr: 0x2E68, symBinAddr: 0x10000CC60, symSize: 0x8C }
  - { offsetInCU: 0x76C4, offset: 0x25297, size: 0x8, addend: 0x0, symName: __ZNSt3__114__split_bufferI5ModelRNS_9allocatorIS1_EEE5clearB8ue170006Ev, symObjAddr: 0x2EF4, symBinAddr: 0x10000CCEC, symSize: 0x28 }
  - { offsetInCU: 0x76E8, offset: 0x252BB, size: 0x8, addend: 0x0, symName: __ZNKSt3__114__split_bufferI5ModelRNS_9allocatorIS1_EEE8capacityB8ue170006Ev, symObjAddr: 0x2F1C, symBinAddr: 0x10000CD14, symSize: 0x40 }
  - { offsetInCU: 0x770C, offset: 0x252DF, size: 0x8, addend: 0x0, symName: __ZNSt3__114__split_bufferI5ModelRNS_9allocatorIS1_EEE17__destruct_at_endB8ue170006EPS1_, symObjAddr: 0x2F5C, symBinAddr: 0x10000CD54, symSize: 0x2C }
  - { offsetInCU: 0x773E, offset: 0x25311, size: 0x8, addend: 0x0, symName: __ZNSt3__114__split_bufferI5ModelRNS_9allocatorIS1_EEE17__destruct_at_endB8ue170006EPS1_NS_17integral_constantIbLb0EEE, symObjAddr: 0x2F88, symBinAddr: 0x10000CD80, symSize: 0x80 }
  - { offsetInCU: 0x777C, offset: 0x2534F, size: 0x8, addend: 0x0, symName: __ZNKSt3__114__split_bufferI5ModelRNS_9allocatorIS1_EEE9__end_capB8ue170006Ev, symObjAddr: 0x3008, symBinAddr: 0x10000CE00, symSize: 0x28 }
  - { offsetInCU: 0x77A0, offset: 0x25373, size: 0x8, addend: 0x0, symName: __ZNKSt3__117__compressed_pairIP5ModelRNS_9allocatorIS1_EEE5firstB8ue170006Ev, symObjAddr: 0x3030, symBinAddr: 0x10000CE28, symSize: 0x24 }
  - { offsetInCU: 0x77C9, offset: 0x2539C, size: 0x8, addend: 0x0, symName: __ZNSt3__16vectorI5ModelNS_9allocatorIS1_EEE22__construct_one_at_endB8ue170006IJS1_EEEvDpOT_, symObjAddr: 0x3054, symBinAddr: 0x10000CE4C, symSize: 0x90 }
  - { offsetInCU: 0x7816, offset: 0x253E9, size: 0x8, addend: 0x0, symName: __ZNSt3__16vectorI5ModelNS_9allocatorIS1_EEE21__push_back_slow_pathIS1_EEvOT_, symObjAddr: 0x30E4, symBinAddr: 0x10000CEDC, symSize: 0xD8 }
  - { offsetInCU: 0x788B, offset: 0x2545E, size: 0x8, addend: 0x0, symName: __ZNSt3__16vectorI5ModelNS_9allocatorIS1_EEE21_ConstructTransactionC1B8ue170006ERS4_m, symObjAddr: 0x31BC, symBinAddr: 0x10000CFB4, symSize: 0x3C }
  - { offsetInCU: 0x78D2, offset: 0x254A5, size: 0x8, addend: 0x0, symName: __ZNSt3__116allocator_traitsINS_9allocatorI5ModelEEE9constructB8ue170006IS2_JS2_EvEEvRS3_PT_DpOT0_, symObjAddr: 0x31F8, symBinAddr: 0x10000CFF0, symSize: 0x34 }
  - { offsetInCU: 0x7927, offset: 0x254FA, size: 0x8, addend: 0x0, symName: __ZNSt3__16vectorI5ModelNS_9allocatorIS1_EEE21_ConstructTransactionD1B8ue170006Ev, symObjAddr: 0x322C, symBinAddr: 0x10000D024, symSize: 0x2C }
  - { offsetInCU: 0x7950, offset: 0x25523, size: 0x8, addend: 0x0, symName: __ZNSt3__16vectorI5ModelNS_9allocatorIS1_EEE21_ConstructTransactionC2B8ue170006ERS4_m, symObjAddr: 0x3258, symBinAddr: 0x10000D050, symSize: 0x4C }
  - { offsetInCU: 0x7995, offset: 0x25568, size: 0x8, addend: 0x0, symName: __ZNSt3__19allocatorI5ModelE9constructB8ue170006IS1_JS1_EEEvPT_DpOT0_, symObjAddr: 0x32A4, symBinAddr: 0x10000D09C, symSize: 0x30 }
  - { offsetInCU: 0x79EA, offset: 0x255BD, size: 0x8, addend: 0x0, symName: __ZN5ModelC1EOS_, symObjAddr: 0x32D4, symBinAddr: 0x10000D0CC, symSize: 0x34 }
  - { offsetInCU: 0x7A1C, offset: 0x255EF, size: 0x8, addend: 0x0, symName: __ZN5ModelC2EOS_, symObjAddr: 0x3308, symBinAddr: 0x10000D100, symSize: 0x40 }
  - { offsetInCU: 0x7A4E, offset: 0x25621, size: 0x8, addend: 0x0, symName: __ZNSt3__16vectorI5ModelNS_9allocatorIS1_EEE21_ConstructTransactionD2B8ue170006Ev, symObjAddr: 0x3348, symBinAddr: 0x10000D140, symSize: 0x20 }
  - { offsetInCU: 0x7A75, offset: 0x25648, size: 0x8, addend: 0x0, symName: __ZNKSt3__16vectorI5ModelNS_9allocatorIS1_EEE11__recommendB8ue170006Em, symObjAddr: 0x3368, symBinAddr: 0x10000D160, symSize: 0xB4 }
  - { offsetInCU: 0x7AC8, offset: 0x2569B, size: 0x8, addend: 0x0, symName: __ZNSt3__16vectorI5ModelNS_9allocatorIS1_EEE11__make_iterB8ue170006EPS1_, symObjAddr: 0x356C, symBinAddr: 0x10000D214, symSize: 0x30 }
  - { offsetInCU: 0x7AFB, offset: 0x256CE, size: 0x8, addend: 0x0, symName: __ZNSt3__111__wrap_iterIP5ModelEC1B8ue170006ES2_, symObjAddr: 0x359C, symBinAddr: 0x10000D244, symSize: 0x34 }
  - { offsetInCU: 0x7B32, offset: 0x25705, size: 0x8, addend: 0x0, symName: __ZNSt3__111__wrap_iterIP5ModelEC2B8ue170006ES2_, symObjAddr: 0x35D0, symBinAddr: 0x10000D278, symSize: 0x20 }
  - { offsetInCU: 0x7B68, offset: 0x2573B, size: 0x8, addend: 0x0, symName: __ZNSt3__18_IterOpsINS_17_ClassicAlgPolicyEE9iter_swapB8ue170006IRP5ModelS6_EEvOT_OT0_, symObjAddr: 0x3C54, symBinAddr: 0x10000D8FC, symSize: 0x34 }
  - { offsetInCU: 0x7BAF, offset: 0x25782, size: 0x8, addend: 0x0, symName: __ZNSt3__18_IterOpsINS_17_ClassicAlgPolicyEE9iter_swapB8ue170006IRP5ModelS5_EEvOT_OT0_, symObjAddr: 0x4250, symBinAddr: 0x10000DEF8, symSize: 0x34 }
  - { offsetInCU: 0x7BF1, offset: 0x257C4, size: 0x8, addend: 0x0, symName: __ZNSt3__18_IterOpsINS_17_ClassicAlgPolicyEE11__iter_moveB8ue170006IRP5ModelEENS_9enable_ifIXsr12is_referenceIDTdeclsr3stdE7declvalIRT_EEEEE5valueEDTclsr3stdE4movedeclsr3stdE7declvalIS9_EEEEE4typeEOS8_, symObjAddr: 0x51E4, symBinAddr: 0x10000EE4C, symSize: 0x28 }
  - { offsetInCU: 0x7C1C, offset: 0x257EF, size: 0x8, addend: 0x0, symName: __ZNSt3__18_IterOpsINS_17_ClassicAlgPolicyEE25__validate_iter_referenceB8ue170006IRP5ModelEEvv, symObjAddr: 0x520C, symBinAddr: 0x10000EE74, symSize: 0x4 }
  - { offsetInCU: 0x7C3A, offset: 0x2580D, size: 0x8, addend: 0x0, symName: __ZNSt3__18_IterOpsINS_17_ClassicAlgPolicyEE4nextB8ue170006IP5ModelEET_S6_S6_, symObjAddr: 0x5210, symBinAddr: 0x10000EE78, symSize: 0x18 }
  - { offsetInCU: 0x7C70, offset: 0x25843, size: 0x8, addend: 0x0, symName: __ZNSt3__18_IterOpsINS_17_ClassicAlgPolicyEE9iter_swapB8ue170006IP5ModelS5_EEvOT_OT0_, symObjAddr: 0x62BC, symBinAddr: 0x10000FF24, symSize: 0x34 }
  - { offsetInCU: 0x7CCF, offset: 0x258A2, size: 0x8, addend: 0x0, symName: __ZNSt3__14pairIP5ModelbEC1B8ue170006IRS2_RbLPv0EEEOT_OT0_, symObjAddr: 0x630C, symBinAddr: 0x10000FF74, symSize: 0x3C }
  - { offsetInCU: 0x7D2C, offset: 0x258FF, size: 0x8, addend: 0x0, symName: __ZNSt3__14pairIP5ModelbEC2B8ue170006IRS2_RbLPv0EEEOT_OT0_, symObjAddr: 0x6348, symBinAddr: 0x10000FFB0, symSize: 0x38 }
  - { offsetInCU: 0x7D88, offset: 0x2595B, size: 0x8, addend: 0x0, symName: __ZNSt3__118__unwrap_iter_implINS_11__wrap_iterIP5ModelEELb1EE8__unwrapB8ue170006ES4_, symObjAddr: 0x6380, symBinAddr: 0x10000FFE8, symSize: 0x28 }
  - { offsetInCU: 0x7DB4, offset: 0x25987, size: 0x8, addend: 0x0, symName: __ZNSt3__119__to_address_helperINS_11__wrap_iterIP5ModelEEvE6__callB8ue170006ERKS4_, symObjAddr: 0x63CC, symBinAddr: 0x100010034, symSize: 0x30 }
  - { offsetInCU: 0x7DD6, offset: 0x259A9, size: 0x8, addend: 0x0, symName: __ZNSt3__114pointer_traitsINS_11__wrap_iterIP5ModelEEE10to_addressB8ue170006ES4_, symObjAddr: 0x63FC, symBinAddr: 0x100010064, symSize: 0x2C }
  - { offsetInCU: 0x7DF8, offset: 0x259CB, size: 0x8, addend: 0x0, symName: __ZNKSt3__111__wrap_iterIP5ModelE4baseB8ue170006Ev, symObjAddr: 0x6428, symBinAddr: 0x100010090, symSize: 0x18 }
  - { offsetInCU: 0x209C, offset: 0x27B26, size: 0x8, addend: 0x0, symName: __ZNSt3__16copy_nB8ue170006IPKcmPcEENS_9enable_ifIXsr37__has_random_access_iterator_categoryIT_EE5valueET1_E4typeES5_T0_S6_, symObjAddr: 0x1478, symBinAddr: 0x100010F00, symSize: 0x44 }
  - { offsetInCU: 0x2E32, offset: 0x288BC, size: 0x8, addend: 0x0, symName: __ZNSt3__1plB8ue170006IcNS_11char_traitsIcEENS_9allocatorIcEEEENS_12basic_stringIT_T0_T1_EEOS9_RKS9_, symObjAddr: 0x530, symBinAddr: 0x1000105A4, symSize: 0x40 }
  - { offsetInCU: 0x2E8A, offset: 0x28914, size: 0x8, addend: 0x0, symName: __ZNSt3__1plB8ue170006IcNS_11char_traitsIcEENS_9allocatorIcEEEENS_12basic_stringIT_T0_T1_EERKS9_SB_, symObjAddr: 0x570, symBinAddr: 0x1000105E4, symSize: 0x134 }
  - { offsetInCU: 0x2F2B, offset: 0x289B5, size: 0x8, addend: 0x0, symName: __ZNSt3__112__to_addressB8ue170006IcEEPT_S2_, symObjAddr: 0xB40, symBinAddr: 0x100010864, symSize: 0x14 }
  - { offsetInCU: 0x3162, offset: 0x28BEC, size: 0x8, addend: 0x0, symName: __ZNSt3__14copyB8ue170006IPKcPcEET0_T_S5_S4_, symObjAddr: 0x14BC, symBinAddr: 0x100010F44, symSize: 0x40 }
  - { offsetInCU: 0x31BC, offset: 0x28C46, size: 0x8, addend: 0x0, symName: __ZNSt3__16__copyB8ue170006INS_17_ClassicAlgPolicyEPKcS3_PcEENS_4pairIT0_T2_EES6_T1_S7_, symObjAddr: 0x14FC, symBinAddr: 0x100010F84, symSize: 0x44 }
  - { offsetInCU: 0x3228, offset: 0x28CB2, size: 0x8, addend: 0x0, symName: __ZNSt3__123__dispatch_copy_or_moveB8ue170006INS_17_ClassicAlgPolicyENS_11__copy_loopIS1_EENS_14__copy_trivialEPKcS6_PcEENS_4pairIT2_T4_EES9_T3_SA_, symObjAddr: 0x1540, symBinAddr: 0x100010FC8, symSize: 0x44 }
  - { offsetInCU: 0x32A6, offset: 0x28D30, size: 0x8, addend: 0x0, symName: __ZNSt3__121__unwrap_and_dispatchB8ue170006INS_10__overloadINS_11__copy_loopINS_17_ClassicAlgPolicyEEENS_14__copy_trivialEEEPKcS8_PcLi0EEENS_4pairIT0_T2_EESB_T1_SC_, symObjAddr: 0x1584, symBinAddr: 0x10001100C, symSize: 0xB4 }
  - { offsetInCU: 0x3334, offset: 0x28DBE, size: 0x8, addend: 0x0, symName: __ZNSt3__114__unwrap_rangeB8ue170006IPKcS2_EENS_4pairIT0_S4_EET_S6_, symObjAddr: 0x1638, symBinAddr: 0x1000110C0, symSize: 0x60 }
  - { offsetInCU: 0x34C9, offset: 0x28F53, size: 0x8, addend: 0x0, symName: __ZNSt3__113__unwrap_iterB8ue170006IPcNS_18__unwrap_iter_implIS1_Lb1EEELi0EEEDTclsrT0_8__unwrapclsr3stdE7declvalIT_EEEES5_, symObjAddr: 0x16E0, symBinAddr: 0x100011168, symSize: 0x24 }
  - { offsetInCU: 0x350D, offset: 0x28F97, size: 0x8, addend: 0x0, symName: __ZNSt3__19make_pairB8ue170006IPKcPcEENS_4pairINS_18__unwrap_ref_decayIT_E4typeENS5_IT0_E4typeEEEOS6_OS9_, symObjAddr: 0x1704, symBinAddr: 0x10001118C, symSize: 0x38 }
  - { offsetInCU: 0x355C, offset: 0x28FE6, size: 0x8, addend: 0x0, symName: __ZNSt3__114__rewrap_rangeB8ue170006IPKcS2_EET_S3_T0_, symObjAddr: 0x173C, symBinAddr: 0x1000111C4, symSize: 0x2C }
  - { offsetInCU: 0x35A8, offset: 0x29032, size: 0x8, addend: 0x0, symName: __ZNSt3__113__rewrap_iterB8ue170006IPcS1_NS_18__unwrap_iter_implIS1_Lb1EEEEET_S4_T0_, symObjAddr: 0x1768, symBinAddr: 0x1000111F0, symSize: 0x3C }
  - { offsetInCU: 0x35FD, offset: 0x29087, size: 0x8, addend: 0x0, symName: __ZNSt3__19make_pairB8ue170006IPKcS2_EENS_4pairINS_18__unwrap_ref_decayIT_E4typeENS4_IT0_E4typeEEEOS5_OS8_, symObjAddr: 0x17A4, symBinAddr: 0x10001122C, symSize: 0x38 }
  - { offsetInCU: 0x364C, offset: 0x290D6, size: 0x8, addend: 0x0, symName: __ZNSt3__113__unwrap_iterB8ue170006IPKcNS_18__unwrap_iter_implIS2_Lb1EEELi0EEEDTclsrT0_8__unwrapclsr3stdE7declvalIT_EEEES6_, symObjAddr: 0x17DC, symBinAddr: 0x100011264, symSize: 0x24 }
  - { offsetInCU: 0x37B7, offset: 0x29241, size: 0x8, addend: 0x0, symName: __ZNSt3__119__copy_trivial_implB8ue170006IKccEENS_4pairIPT_PT0_EES4_S4_S6_, symObjAddr: 0x1894, symBinAddr: 0x10001131C, symSize: 0x78 }
  - { offsetInCU: 0x381F, offset: 0x292A9, size: 0x8, addend: 0x0, symName: __ZNSt3__119__constexpr_memmoveB8ue170006IcKcLi0EEEPT_S3_PT0_NS_15__element_countE, symObjAddr: 0x190C, symBinAddr: 0x100011394, symSize: 0x64 }
  - { offsetInCU: 0x388D, offset: 0x29317, size: 0x8, addend: 0x0, symName: __ZNSt3__19make_pairB8ue170006IRPKcPcEENS_4pairINS_18__unwrap_ref_decayIT_E4typeENS6_IT0_E4typeEEEOS7_OSA_, symObjAddr: 0x1970, symBinAddr: 0x1000113F8, symSize: 0x38 }
  - { offsetInCU: 0x392F, offset: 0x293B9, size: 0x8, addend: 0x0, symName: __ZNSt3__113__rewrap_iterB8ue170006IPKcS2_NS_18__unwrap_iter_implIS2_Lb1EEEEET_S5_T0_, symObjAddr: 0x1AAC, symBinAddr: 0x100011534, symSize: 0x3C }
  - { offsetInCU: 0x3984, offset: 0x2940E, size: 0x8, addend: 0x0, symName: __ZNSt3__16fill_nB8ue170006IPcmcEET_S2_T0_RKT1_, symObjAddr: 0x1B78, symBinAddr: 0x100011600, symSize: 0x44 }
  - { offsetInCU: 0x39E7, offset: 0x29471, size: 0x8, addend: 0x0, symName: __ZNSt3__18__fill_nB8ue170006IPcmcEET_S2_T0_RKT1_, symObjAddr: 0x1BBC, symBinAddr: 0x100011644, symSize: 0x64 }
  - { offsetInCU: 0x3A4A, offset: 0x294D4, size: 0x8, addend: 0x0, symName: __ZNSt3__121__convert_to_integralB8ue170006Em, symObjAddr: 0x1C20, symBinAddr: 0x1000116A8, symSize: 0x14 }
  - { offsetInCU: 0x5ACA, offset: 0x2B554, size: 0x8, addend: 0x0, symName: __ZN7TextboxC2Ev, symObjAddr: 0x0, symBinAddr: 0x1000100A8, symSize: 0xD0 }
  - { offsetInCU: 0x5B08, offset: 0x2B592, size: 0x8, addend: 0x0, symName: __ZNSt3__112basic_stringIcNS_11char_traitsIcEENS_9allocatorIcEEEC1B8ue170006Ev, symObjAddr: 0xD0, symBinAddr: 0x100010178, symSize: 0x2C }
  - { offsetInCU: 0x5B35, offset: 0x2B5BF, size: 0x8, addend: 0x0, symName: __ZNKSt3__112basic_stringIcNS_11char_traitsIcEENS_9allocatorIcEEE5c_strB8ue170006Ev, symObjAddr: 0x130, symBinAddr: 0x1000101A4, symSize: 0x24 }
  - { offsetInCU: 0x5B59, offset: 0x2B5E3, size: 0x8, addend: 0x0, symName: __ZN7TextboxC1Ev, symObjAddr: 0x154, symBinAddr: 0x1000101C8, symSize: 0x2C }
  - { offsetInCU: 0x5B83, offset: 0x2B60D, size: 0x8, addend: 0x0, symName: __ZN7TextboxC2ENSt3__112basic_stringIcNS0_11char_traitsIcEENS0_9allocatorIcEEEEiiiiiiS6_, symObjAddr: 0x180, symBinAddr: 0x1000101F4, symSize: 0x10C }
  - { offsetInCU: 0x5C1F, offset: 0x2B6A9, size: 0x8, addend: 0x0, symName: __ZN7TextboxC1ENSt3__112basic_stringIcNS0_11char_traitsIcEENS0_9allocatorIcEEEEiiiiiiS6_, symObjAddr: 0x28C, symBinAddr: 0x100010300, symSize: 0x74 }
  - { offsetInCU: 0x5CBB, offset: 0x2B745, size: 0x8, addend: 0x0, symName: __ZN7Textbox11updateValueEi, symObjAddr: 0x300, symBinAddr: 0x100010374, symSize: 0x20 }
  - { offsetInCU: 0x5CF0, offset: 0x2B77A, size: 0x8, addend: 0x0, symName: __ZN7Textbox8incValueEb, symObjAddr: 0x320, symBinAddr: 0x100010394, symSize: 0x58 }
  - { offsetInCU: 0x5D25, offset: 0x2B7AF, size: 0x8, addend: 0x0, symName: __ZN7Textbox6renderEP12SDL_RendererP10SDL_Window, symObjAddr: 0x378, symBinAddr: 0x1000103EC, symSize: 0x1B8 }
  - { offsetInCU: 0x5DA1, offset: 0x2B82B, size: 0x8, addend: 0x0, symName: __ZNSt3__112basic_stringIcNS_11char_traitsIcEENS_9allocatorIcEEEC2B8ue170006Ev, symObjAddr: 0x6A4, symBinAddr: 0x100010718, symSize: 0x48 }
  - { offsetInCU: 0x5DCE, offset: 0x2B858, size: 0x8, addend: 0x0, symName: __ZNSt3__112basic_stringIcNS_11char_traitsIcEENS_9allocatorIcEEE14__default_initB8ue170006Ev, symObjAddr: 0x734, symBinAddr: 0x100010760, symSize: 0x40 }
  - { offsetInCU: 0x5DF2, offset: 0x2B87C, size: 0x8, addend: 0x0, symName: __ZNKSt3__112basic_stringIcNS_11char_traitsIcEENS_9allocatorIcEEE4sizeB8ue170006Ev, symObjAddr: 0xA7C, symBinAddr: 0x1000107A0, symSize: 0x54 }
  - { offsetInCU: 0x5E20, offset: 0x2B8AA, size: 0x8, addend: 0x0, symName: __ZNSt3__116allocator_traitsINS_9allocatorIcEEE37select_on_container_copy_constructionB8ue170006IS2_vvEES2_RKS2_, symObjAddr: 0xAD0, symBinAddr: 0x1000107F4, symSize: 0x10 }
  - { offsetInCU: 0x5E4F, offset: 0x2B8D9, size: 0x8, addend: 0x0, symName: __ZNKSt3__112basic_stringIcNS_11char_traitsIcEENS_9allocatorIcEEE13get_allocatorB8ue170006Ev, symObjAddr: 0xAE0, symBinAddr: 0x100010804, symSize: 0x24 }
  - { offsetInCU: 0x5E73, offset: 0x2B8FD, size: 0x8, addend: 0x0, symName: __ZNSt3__112basic_stringIcNS_11char_traitsIcEENS_9allocatorIcEEEC1B8ue170006ENS_24__uninitialized_size_tagEmRKS4_, symObjAddr: 0xB04, symBinAddr: 0x100010828, symSize: 0x3C }
  - { offsetInCU: 0x5EC4, offset: 0x2B94E, size: 0x8, addend: 0x0, symName: __ZNSt3__112basic_stringIcNS_11char_traitsIcEENS_9allocatorIcEEE13__get_pointerB8ue170006Ev, symObjAddr: 0xB54, symBinAddr: 0x100010878, symSize: 0x54 }
  - { offsetInCU: 0x5EE8, offset: 0x2B972, size: 0x8, addend: 0x0, symName: __ZNSt3__111char_traitsIcE4copyB8ue170006EPcPKcm, symObjAddr: 0xBA8, symBinAddr: 0x1000108CC, symSize: 0x40 }
  - { offsetInCU: 0x5F26, offset: 0x2B9B0, size: 0x8, addend: 0x0, symName: __ZNSt3__111char_traitsIcE6assignB8ue170006EPcmc, symObjAddr: 0xBE8, symBinAddr: 0x10001090C, symSize: 0x44 }
  - { offsetInCU: 0x5F64, offset: 0x2B9EE, size: 0x8, addend: 0x0, symName: __ZNKSt3__112basic_stringIcNS_11char_traitsIcEENS_9allocatorIcEEE15__get_long_sizeB8ue170006Ev, symObjAddr: 0xC2C, symBinAddr: 0x100010950, symSize: 0x28 }
  - { offsetInCU: 0x5F88, offset: 0x2BA12, size: 0x8, addend: 0x0, symName: __ZNKSt3__112basic_stringIcNS_11char_traitsIcEENS_9allocatorIcEEE16__get_short_sizeB8ue170006Ev, symObjAddr: 0xC54, symBinAddr: 0x100010978, symSize: 0x34 }
  - { offsetInCU: 0x5FAC, offset: 0x2BA36, size: 0x8, addend: 0x0, symName: __ZNKSt3__112basic_stringIcNS_11char_traitsIcEENS_9allocatorIcEEE7__allocB8ue170006Ev, symObjAddr: 0xC88, symBinAddr: 0x1000109AC, symSize: 0x24 }
  - { offsetInCU: 0x5FD0, offset: 0x2BA5A, size: 0x8, addend: 0x0, symName: __ZNKSt3__117__compressed_pairINS_12basic_stringIcNS_11char_traitsIcEENS_9allocatorIcEEE5__repES5_E6secondB8ue170006Ev, symObjAddr: 0xCAC, symBinAddr: 0x1000109D0, symSize: 0x24 }
  - { offsetInCU: 0x5FF4, offset: 0x2BA7E, size: 0x8, addend: 0x0, symName: __ZNKSt3__122__compressed_pair_elemINS_9allocatorIcEELi1ELb1EE5__getB8ue170006Ev, symObjAddr: 0xCD0, symBinAddr: 0x1000109F4, symSize: 0x14 }
  - { offsetInCU: 0x6018, offset: 0x2BAA2, size: 0x8, addend: 0x0, symName: __ZNSt3__112basic_stringIcNS_11char_traitsIcEENS_9allocatorIcEEEC2B8ue170006ENS_24__uninitialized_size_tagEmRKS4_, symObjAddr: 0xCE4, symBinAddr: 0x100010A08, symSize: 0x110 }
  - { offsetInCU: 0x6095, offset: 0x2BB1F, size: 0x8, addend: 0x0, symName: __ZNSt3__117__compressed_pairINS_12basic_stringIcNS_11char_traitsIcEENS_9allocatorIcEEE5__repES5_EC1B8ue170006INS_18__default_init_tagERKS5_EEOT_OT0_, symObjAddr: 0xDF4, symBinAddr: 0x100010B18, symSize: 0x3C }
  - { offsetInCU: 0x60EB, offset: 0x2BB75, size: 0x8, addend: 0x0, symName: __ZNKSt3__112basic_stringIcNS_11char_traitsIcEENS_9allocatorIcEEE8max_sizeB8ue170006Ev, symObjAddr: 0xE30, symBinAddr: 0x100010B54, symSize: 0xAC }
  - { offsetInCU: 0x613B, offset: 0x2BBC5, size: 0x8, addend: 0x0, symName: __ZNKSt3__112basic_stringIcNS_11char_traitsIcEENS_9allocatorIcEEE20__throw_length_errorB8ue170006Ev, symObjAddr: 0xEDC, symBinAddr: 0x100010C00, symSize: 0x1C }
  - { offsetInCU: 0x615F, offset: 0x2BBE9, size: 0x8, addend: 0x0, symName: __ZNSt3__112basic_stringIcNS_11char_traitsIcEENS_9allocatorIcEEE13__fits_in_ssoB8ue170006Em, symObjAddr: 0xEF8, symBinAddr: 0x100010C1C, symSize: 0x20 }
  - { offsetInCU: 0x6183, offset: 0x2BC0D, size: 0x8, addend: 0x0, symName: __ZNSt3__112basic_stringIcNS_11char_traitsIcEENS_9allocatorIcEEE11__recommendB8ue170006Em, symObjAddr: 0xF90, symBinAddr: 0x100010C3C, symSize: 0x84 }
  - { offsetInCU: 0x61B5, offset: 0x2BC3F, size: 0x8, addend: 0x0, symName: __ZNSt3__116allocator_traitsINS_9allocatorIcEEE8allocateB8ue170006ERS2_m, symObjAddr: 0x1014, symBinAddr: 0x100010CC0, symSize: 0x2C }
  - { offsetInCU: 0x61E7, offset: 0x2BC71, size: 0x8, addend: 0x0, symName: __ZNSt3__112basic_stringIcNS_11char_traitsIcEENS_9allocatorIcEEE16__begin_lifetimeB8ue170006EPcm, symObjAddr: 0x1064, symBinAddr: 0x100010CEC, symSize: 0x14 }
  - { offsetInCU: 0x621A, offset: 0x2BCA4, size: 0x8, addend: 0x0, symName: __ZNSt3__112basic_stringIcNS_11char_traitsIcEENS_9allocatorIcEEE14__set_long_capB8ue170006Em, symObjAddr: 0x1078, symBinAddr: 0x100010D00, symSize: 0x70 }
  - { offsetInCU: 0x624D, offset: 0x2BCD7, size: 0x8, addend: 0x0, symName: __ZNSt3__112basic_stringIcNS_11char_traitsIcEENS_9allocatorIcEEE18__set_long_pointerB8ue170006EPc, symObjAddr: 0x10E8, symBinAddr: 0x100010D70, symSize: 0x38 }
  - { offsetInCU: 0x6280, offset: 0x2BD0A, size: 0x8, addend: 0x0, symName: __ZNSt3__112basic_stringIcNS_11char_traitsIcEENS_9allocatorIcEEE15__set_long_sizeB8ue170006Em, symObjAddr: 0x1120, symBinAddr: 0x100010DA8, symSize: 0x38 }
  - { offsetInCU: 0x62B3, offset: 0x2BD3D, size: 0x8, addend: 0x0, symName: __ZNSt3__117__compressed_pairINS_12basic_stringIcNS_11char_traitsIcEENS_9allocatorIcEEE5__repES5_EC2B8ue170006INS_18__default_init_tagERKS5_EEOT_OT0_, symObjAddr: 0x1158, symBinAddr: 0x100010DE0, symSize: 0x40 }
  - { offsetInCU: 0x6309, offset: 0x2BD93, size: 0x8, addend: 0x0, symName: __ZNSt3__122__compressed_pair_elemINS_9allocatorIcEELi1ELb1EEC2B8ue170006IRKS2_vEEOT_, symObjAddr: 0x1198, symBinAddr: 0x100010E20, symSize: 0x18 }
  - { offsetInCU: 0x6349, offset: 0x2BDD3, size: 0x8, addend: 0x0, symName: __ZNSt3__116allocator_traitsINS_9allocatorIcEEE8max_sizeB8ue170006IS2_vEEmRKS2_, symObjAddr: 0x11B0, symBinAddr: 0x100010E38, symSize: 0x24 }
  - { offsetInCU: 0x6376, offset: 0x2BE00, size: 0x8, addend: 0x0, symName: __ZNSt3__114numeric_limitsImE3maxB8ue170006Ev, symObjAddr: 0x11D4, symBinAddr: 0x100010E5C, symSize: 0x14 }
  - { offsetInCU: 0x638A, offset: 0x2BE14, size: 0x8, addend: 0x0, symName: __ZNKSt3__19allocatorIcE8max_sizeB8ue170006Ev, symObjAddr: 0x11E8, symBinAddr: 0x100010E70, symSize: 0x14 }
  - { offsetInCU: 0x63AE, offset: 0x2BE38, size: 0x8, addend: 0x0, symName: __ZNSt3__123__libcpp_numeric_limitsImLb1EE3maxB8ue170006Ev, symObjAddr: 0x11FC, symBinAddr: 0x100010E84, symSize: 0x8 }
  - { offsetInCU: 0x63C2, offset: 0x2BE4C, size: 0x8, addend: 0x0, symName: __ZNSt3__112basic_stringIcNS_11char_traitsIcEENS_9allocatorIcEEE10__align_itB8ue170006ILm16EEEmm, symObjAddr: 0x12E8, symBinAddr: 0x100010E8C, symSize: 0x1C }
  - { offsetInCU: 0x63F0, offset: 0x2BE7A, size: 0x8, addend: 0x0, symName: __ZNSt3__19allocatorIcE8allocateB8ue170006Em, symObjAddr: 0x1304, symBinAddr: 0x100010EA8, symSize: 0x58 }
  - { offsetInCU: 0x6445, offset: 0x2BECF, size: 0x8, addend: 0x0, symName: __ZNKSt3__114__copy_trivialclB8ue170006IKccLi0EEENS_4pairIPT_PT0_EES5_S5_S7_, symObjAddr: 0x1698, symBinAddr: 0x100011120, symSize: 0x48 }
  - { offsetInCU: 0x64C9, offset: 0x2BF53, size: 0x8, addend: 0x0, symName: __ZNSt3__14pairIPKcS2_EC1B8ue170006IS2_S2_LPv0EEEOT_OT0_, symObjAddr: 0x1800, symBinAddr: 0x100011288, symSize: 0x3C }
  - { offsetInCU: 0x6525, offset: 0x2BFAF, size: 0x8, addend: 0x0, symName: __ZNSt3__14pairIPKcS2_EC2B8ue170006IS2_S2_LPv0EEEOT_OT0_, symObjAddr: 0x183C, symBinAddr: 0x1000112C4, symSize: 0x34 }
  - { offsetInCU: 0x6581, offset: 0x2C00B, size: 0x8, addend: 0x0, symName: __ZNSt3__118__unwrap_iter_implIPKcLb1EE8__unwrapB8ue170006ES2_, symObjAddr: 0x1870, symBinAddr: 0x1000112F8, symSize: 0x24 }
  - { offsetInCU: 0x65AD, offset: 0x2C037, size: 0x8, addend: 0x0, symName: __ZNSt3__14pairIPKcPcEC1B8ue170006IRS2_S3_LPv0EEEOT_OT0_, symObjAddr: 0x19A8, symBinAddr: 0x100011430, symSize: 0x3C }
  - { offsetInCU: 0x6609, offset: 0x2C093, size: 0x8, addend: 0x0, symName: __ZNSt3__14pairIPKcPcEC2B8ue170006IRS2_S3_LPv0EEEOT_OT0_, symObjAddr: 0x19E4, symBinAddr: 0x10001146C, symSize: 0x34 }
  - { offsetInCU: 0x6665, offset: 0x2C0EF, size: 0x8, addend: 0x0, symName: __ZNSt3__118__unwrap_iter_implIPcLb1EE8__unwrapB8ue170006ES1_, symObjAddr: 0x1A18, symBinAddr: 0x1000114A0, symSize: 0x24 }
  - { offsetInCU: 0x6687, offset: 0x2C111, size: 0x8, addend: 0x0, symName: __ZNSt3__14pairIPKcPcEC1B8ue170006IS2_S3_LPv0EEEOT_OT0_, symObjAddr: 0x1A3C, symBinAddr: 0x1000114C4, symSize: 0x3C }
  - { offsetInCU: 0x66E3, offset: 0x2C16D, size: 0x8, addend: 0x0, symName: __ZNSt3__14pairIPKcPcEC2B8ue170006IS2_S3_LPv0EEEOT_OT0_, symObjAddr: 0x1A78, symBinAddr: 0x100011500, symSize: 0x34 }
  - { offsetInCU: 0x673F, offset: 0x2C1C9, size: 0x8, addend: 0x0, symName: __ZNSt3__118__unwrap_iter_implIPKcLb1EE8__rewrapB8ue170006ES2_S2_, symObjAddr: 0x1AE8, symBinAddr: 0x100011570, symSize: 0x48 }
  - { offsetInCU: 0x676F, offset: 0x2C1F9, size: 0x8, addend: 0x0, symName: __ZNSt3__118__unwrap_iter_implIPcLb1EE8__rewrapB8ue170006ES1_S1_, symObjAddr: 0x1B30, symBinAddr: 0x1000115B8, symSize: 0x48 }
  - { offsetInCU: 0x679F, offset: 0x2C229, size: 0x8, addend: 0x0, symName: __ZNSt3__112basic_stringIcNS_11char_traitsIcEENS_9allocatorIcEEE6appendB8ue170006ERKS5_, symObjAddr: 0x1C34, symBinAddr: 0x1000116BC, symSize: 0x4C }
  - { offsetInCU: 0x67D2, offset: 0x2C25C, size: 0x8, addend: 0x0, symName: __ZNSt3__112basic_stringIcNS_11char_traitsIcEENS_9allocatorIcEEEC1B8ue170006EOS5_, symObjAddr: 0x1C80, symBinAddr: 0x100011708, symSize: 0x34 }
  - { offsetInCU: 0x6809, offset: 0x2C293, size: 0x8, addend: 0x0, symName: __ZNSt3__112basic_stringIcNS_11char_traitsIcEENS_9allocatorIcEEEC2B8ue170006EOS5_, symObjAddr: 0x1CB4, symBinAddr: 0x10001173C, symSize: 0x48 }
  - { offsetInCU: 0x4151, offset: 0x306AA, size: 0x8, addend: 0x0, symName: __ZNSt3__122__make_exception_guardB8ue170006INS_6vectorI5ModelNS_9allocatorIS2_EEE16__destroy_vectorEEENS_28__exception_guard_exceptionsIT_EES8_, symObjAddr: 0xDAC, symBinAddr: 0x1000120F0, symSize: 0x40 }
  - { offsetInCU: 0x4186, offset: 0x306DF, size: 0x8, addend: 0x0, symName: __ZNSt3__130__uninitialized_allocator_copyB8ue170006INS_9allocatorI5ModelEEPS2_S4_S4_EET2_RT_T0_T1_S5_, symObjAddr: 0x1668, symBinAddr: 0x100012310, symSize: 0x80 }
  - { offsetInCU: 0x4223, offset: 0x3077C, size: 0x8, addend: 0x0, symName: __ZNSt3__114__unwrap_rangeB8ue170006IP5ModelS2_EENS_4pairIT0_S4_EET_S6_, symObjAddr: 0x1760, symBinAddr: 0x100012390, symSize: 0x60 }
  - { offsetInCU: 0x426F, offset: 0x307C8, size: 0x8, addend: 0x0, symName: __ZNSt3__135__uninitialized_allocator_copy_implB8ue170006INS_9allocatorI5ModelEEPS2_S4_S4_EET2_RT_T0_T1_S5_, symObjAddr: 0x17C0, symBinAddr: 0x1000123F0, symSize: 0xF4 }
  - { offsetInCU: 0x430D, offset: 0x30866, size: 0x8, addend: 0x0, symName: __ZNSt3__113__unwrap_iterB8ue170006IP5ModelNS_18__unwrap_iter_implIS2_Lb1EEELi0EEEDTclsrT0_8__unwrapclsr3stdE7declvalIT_EEEES6_, symObjAddr: 0x18B4, symBinAddr: 0x1000124E4, symSize: 0x24 }
  - { offsetInCU: 0x4351, offset: 0x308AA, size: 0x8, addend: 0x0, symName: __ZNSt3__113__rewrap_iterB8ue170006IP5ModelS2_NS_18__unwrap_iter_implIS2_Lb1EEEEET_S5_T0_, symObjAddr: 0x18D8, symBinAddr: 0x100012508, symSize: 0x3C }
  - { offsetInCU: 0x43A6, offset: 0x308FF, size: 0x8, addend: 0x0, symName: __ZNSt3__19make_pairB8ue170006IP5ModelS2_EENS_4pairINS_18__unwrap_ref_decayIT_E4typeENS4_IT0_E4typeEEEOS5_OS8_, symObjAddr: 0x1914, symBinAddr: 0x100012544, symSize: 0x38 }
  - { offsetInCU: 0x44C9, offset: 0x30A22, size: 0x8, addend: 0x0, symName: __ZNSt3__122__make_exception_guardB8ue170006INS_29_AllocatorDestroyRangeReverseINS_9allocatorI5ModelEEPS3_EEEENS_28__exception_guard_exceptionsIT_EES8_, symObjAddr: 0x19BC, symBinAddr: 0x1000125EC, symSize: 0x4C }
  - { offsetInCU: 0x44FF, offset: 0x30A58, size: 0x8, addend: 0x0, symName: __ZNSt3__119__allocator_destroyB8ue170006INS_9allocatorI5ModelEENS_16reverse_iteratorIPS2_EES6_EEvRT_T0_T1_, symObjAddr: 0x1CC0, symBinAddr: 0x10001287C, symSize: 0x70 }
  - { offsetInCU: 0x6F95, offset: 0x334EE, size: 0x8, addend: 0x0, symName: __Z21generateRandomIntegerii, symObjAddr: 0x0, symBinAddr: 0x100011784, symSize: 0xA8 }
  - { offsetInCU: 0x6FFA, offset: 0x33553, size: 0x8, addend: 0x0, symName: _main, symObjAddr: 0x1BC, symBinAddr: 0x10001182C, symSize: 0x620 }
  - { offsetInCU: 0x7252, offset: 0x337AB, size: 0x8, addend: 0x0, symName: __ZN10PopulationC1ERKS_, symObjAddr: 0x7DC, symBinAddr: 0x100011E4C, symSize: 0x34 }
  - { offsetInCU: 0x7289, offset: 0x337E2, size: 0x8, addend: 0x0, symName: __ZN10PopulationC2ERKS_, symObjAddr: 0xA98, symBinAddr: 0x100011E80, symSize: 0x48 }
  - { offsetInCU: 0x72BB, offset: 0x33814, size: 0x8, addend: 0x0, symName: __ZNSt3__16vectorI5ModelNS_9allocatorIS1_EEEC1ERKS4_, symObjAddr: 0xAE0, symBinAddr: 0x100011EC8, symSize: 0x34 }
  - { offsetInCU: 0x72F5, offset: 0x3384E, size: 0x8, addend: 0x0, symName: __ZNSt3__16vectorI5ModelNS_9allocatorIS1_EEEC2ERKS4_, symObjAddr: 0xB14, symBinAddr: 0x100011EFC, symSize: 0x94 }
  - { offsetInCU: 0x7339, offset: 0x33892, size: 0x8, addend: 0x0, symName: __ZNSt3__116allocator_traitsINS_9allocatorI5ModelEEE37select_on_container_copy_constructionB8ue170006IS3_vvEES3_RKS3_, symObjAddr: 0xBA8, symBinAddr: 0x100011F90, symSize: 0x10 }
  - { offsetInCU: 0x7372, offset: 0x338CB, size: 0x8, addend: 0x0, symName: __ZNSt3__117__compressed_pairIP5ModelNS_9allocatorIS1_EEEC1B8ue170006IDnS4_EEOT_OT0_, symObjAddr: 0xBE0, symBinAddr: 0x100011FA0, symSize: 0x3C }
  - { offsetInCU: 0x73C8, offset: 0x33921, size: 0x8, addend: 0x0, symName: __ZNSt3__16vectorI5ModelNS_9allocatorIS1_EEE16__init_with_sizeB8ue170006IPS1_S6_EEvT_T0_m, symObjAddr: 0xC1C, symBinAddr: 0x100011FDC, symSize: 0xB8 }
  - { offsetInCU: 0x743A, offset: 0x33993, size: 0x8, addend: 0x0, symName: __ZNSt3__117__compressed_pairIP5ModelNS_9allocatorIS1_EEEC2B8ue170006IDnS4_EEOT_OT0_, symObjAddr: 0xD34, symBinAddr: 0x100012094, symSize: 0x44 }
  - { offsetInCU: 0x7490, offset: 0x339E9, size: 0x8, addend: 0x0, symName: __ZNSt3__122__compressed_pair_elemINS_9allocatorI5ModelEELi1ELb1EEC2B8ue170006IS3_vEEOT_, symObjAddr: 0xD94, symBinAddr: 0x1000120D8, symSize: 0x18 }
  - { offsetInCU: 0x74D0, offset: 0x33A29, size: 0x8, addend: 0x0, symName: __ZNSt3__16vectorI5ModelNS_9allocatorIS1_EEE11__vallocateB8ue170006Em, symObjAddr: 0xE20, symBinAddr: 0x100012130, symSize: 0xB4 }
  - { offsetInCU: 0x7512, offset: 0x33A6B, size: 0x8, addend: 0x0, symName: __ZNSt3__16vectorI5ModelNS_9allocatorIS1_EEE18__construct_at_endIPS1_S6_EEvT_T0_m, symObjAddr: 0xED4, symBinAddr: 0x1000121E4, symSize: 0x8C }
  - { offsetInCU: 0x7586, offset: 0x33ADF, size: 0x8, addend: 0x0, symName: __ZNSt3__128__exception_guard_exceptionsINS_6vectorI5ModelNS_9allocatorIS2_EEE16__destroy_vectorEE10__completeB8ue170006Ev, symObjAddr: 0xF60, symBinAddr: 0x100012270, symSize: 0x1C }
  - { offsetInCU: 0x75AA, offset: 0x33B03, size: 0x8, addend: 0x0, symName: __ZNSt3__128__exception_guard_exceptionsINS_6vectorI5ModelNS_9allocatorIS2_EEE16__destroy_vectorEED1B8ue170006Ev, symObjAddr: 0xF7C, symBinAddr: 0x10001228C, symSize: 0x2C }
  - { offsetInCU: 0x75D2, offset: 0x33B2B, size: 0x8, addend: 0x0, symName: __ZNSt3__128__exception_guard_exceptionsINS_6vectorI5ModelNS_9allocatorIS2_EEE16__destroy_vectorEEC1B8ue170006ES6_, symObjAddr: 0xFA8, symBinAddr: 0x1000122B8, symSize: 0x34 }
  - { offsetInCU: 0x7608, offset: 0x33B61, size: 0x8, addend: 0x0, symName: __ZNSt3__128__exception_guard_exceptionsINS_6vectorI5ModelNS_9allocatorIS2_EEE16__destroy_vectorEEC2B8ue170006ES6_, symObjAddr: 0xFDC, symBinAddr: 0x1000122EC, symSize: 0x24 }
  - { offsetInCU: 0x7675, offset: 0x33BCE, size: 0x8, addend: 0x0, symName: __ZNSt3__14pairIP5ModelS2_EC1B8ue170006IS2_S2_LPv0EEEOT_OT0_, symObjAddr: 0x194C, symBinAddr: 0x10001257C, symSize: 0x3C }
  - { offsetInCU: 0x76D1, offset: 0x33C2A, size: 0x8, addend: 0x0, symName: __ZNSt3__14pairIP5ModelS2_EC2B8ue170006IS2_S2_LPv0EEEOT_OT0_, symObjAddr: 0x1988, symBinAddr: 0x1000125B8, symSize: 0x34 }
  - { offsetInCU: 0x772D, offset: 0x33C86, size: 0x8, addend: 0x0, symName: __ZNSt3__129_AllocatorDestroyRangeReverseINS_9allocatorI5ModelEEPS2_EC1B8ue170006ERS3_RS4_S7_, symObjAddr: 0x1A08, symBinAddr: 0x100012638, symSize: 0x44 }
  - { offsetInCU: 0x7782, offset: 0x33CDB, size: 0x8, addend: 0x0, symName: __ZNSt3__116allocator_traitsINS_9allocatorI5ModelEEE9constructB8ue170006IS2_JRS2_EvEEvRS3_PT_DpOT0_, symObjAddr: 0x1A4C, symBinAddr: 0x10001267C, symSize: 0x34 }
  - { offsetInCU: 0x77D8, offset: 0x33D31, size: 0x8, addend: 0x0, symName: __ZNSt3__128__exception_guard_exceptionsINS_29_AllocatorDestroyRangeReverseINS_9allocatorI5ModelEEPS3_EEE10__completeB8ue170006Ev, symObjAddr: 0x1A80, symBinAddr: 0x1000126B0, symSize: 0x1C }
  - { offsetInCU: 0x77FC, offset: 0x33D55, size: 0x8, addend: 0x0, symName: __ZNSt3__128__exception_guard_exceptionsINS_29_AllocatorDestroyRangeReverseINS_9allocatorI5ModelEEPS3_EEED1B8ue170006Ev, symObjAddr: 0x1A9C, symBinAddr: 0x1000126CC, symSize: 0x2C }
  - { offsetInCU: 0x7824, offset: 0x33D7D, size: 0x8, addend: 0x0, symName: __ZNSt3__128__exception_guard_exceptionsINS_29_AllocatorDestroyRangeReverseINS_9allocatorI5ModelEEPS3_EEEC1B8ue170006ES6_, symObjAddr: 0x1AC8, symBinAddr: 0x1000126F8, symSize: 0x34 }
  - { offsetInCU: 0x785B, offset: 0x33DB4, size: 0x8, addend: 0x0, symName: __ZNSt3__128__exception_guard_exceptionsINS_29_AllocatorDestroyRangeReverseINS_9allocatorI5ModelEEPS3_EEEC2B8ue170006ES6_, symObjAddr: 0x1AFC, symBinAddr: 0x10001272C, symSize: 0x30 }
  - { offsetInCU: 0x7892, offset: 0x33DEB, size: 0x8, addend: 0x0, symName: __ZNSt3__129_AllocatorDestroyRangeReverseINS_9allocatorI5ModelEEPS2_EC2B8ue170006ERS3_RS4_S7_, symObjAddr: 0x1B2C, symBinAddr: 0x10001275C, symSize: 0x38 }
  - { offsetInCU: 0x78E7, offset: 0x33E40, size: 0x8, addend: 0x0, symName: __ZNSt3__19allocatorI5ModelE9constructB8ue170006IS1_JRS1_EEEvPT_DpOT0_, symObjAddr: 0x1B64, symBinAddr: 0x100012794, symSize: 0x30 }
  - { offsetInCU: 0x793B, offset: 0x33E94, size: 0x8, addend: 0x0, symName: __ZNSt3__128__exception_guard_exceptionsINS_29_AllocatorDestroyRangeReverseINS_9allocatorI5ModelEEPS3_EEED2B8ue170006Ev, symObjAddr: 0x1C08, symBinAddr: 0x1000127C4, symSize: 0x50 }
  - { offsetInCU: 0x7963, offset: 0x33EBC, size: 0x8, addend: 0x0, symName: __ZNKSt3__129_AllocatorDestroyRangeReverseINS_9allocatorI5ModelEEPS2_EclB8ue170006Ev, symObjAddr: 0x1C58, symBinAddr: 0x100012814, symSize: 0x68 }
  - { offsetInCU: 0x7987, offset: 0x33EE0, size: 0x8, addend: 0x0, symName: __ZNSt3__118__unwrap_iter_implIP5ModelLb1EE8__unwrapB8ue170006ES2_, symObjAddr: 0x1F60, symBinAddr: 0x1000128EC, symSize: 0x24 }
  - { offsetInCU: 0x79A9, offset: 0x33F02, size: 0x8, addend: 0x0, symName: __ZNSt3__118__unwrap_iter_implIP5ModelLb1EE8__rewrapB8ue170006ES2_S2_, symObjAddr: 0x1F84, symBinAddr: 0x100012910, symSize: 0x58 }
  - { offsetInCU: 0x79D9, offset: 0x33F32, size: 0x8, addend: 0x0, symName: __ZNSt3__128__exception_guard_exceptionsINS_6vectorI5ModelNS_9allocatorIS2_EEE16__destroy_vectorEED2B8ue170006Ev, symObjAddr: 0x1FFC, symBinAddr: 0x100012968, symSize: 0x50 }
...
